Archive member included because of file (symbol)

contiki-sky.a(contiki-sky-pla)
                              obj_sky/contiki-sky-main.o (init_platform)
contiki-sky.a(sht11-sensor.o)
                              sky-collect.co (sht11_sensor)
contiki-sky.a(light-sensor.o)
                              sky-collect.co (light_sensor)
contiki-sky.a(button-sensor.o)
                              sky-collect.co (button_sensor)
contiki-sky.a(ds2411.o)       obj_sky/contiki-sky-main.o (ds2411_init)
contiki-sky.a(xmem.o)         obj_sky/contiki-sky-main.o (xmem_init)
contiki-sky.a(node-id.o)      obj_sky/contiki-sky-main.o (node_id_restore)
contiki-sky.a(sensors.o)      sky-collect.co (sensors_event)
contiki-sky.a(cc2420.o)       sky-collect.co (cc2420_on)
contiki-sky.a(cc2420-arch.o)  contiki-sky.a(cc2420.o) (cc2420_arch_init)
contiki-sky.a(sky-sensors.o)  contiki-sky.a(light-sensor.o) (sky_sensors_status)
contiki-sky.a(uart1.o)        obj_sky/contiki-sky-main.o (uart1_active)
contiki-sky.a(slip_uart1.o)   sky-collect.co (putchar)
contiki-sky.a(slip.o)         obj_sky/contiki-sky-main.o (slip_set_input_callback)
contiki-sky.a(msp430.o)       contiki-sky.a(uart1.o) (msp430_add_lpm_req)
contiki-sky.a(clock.o)        obj_sky/contiki-sky-main.o (clock_init)
contiki-sky.a(leds.o)         obj_sky/contiki-sky-main.o (leds_init)
contiki-sky.a(leds-arch.o)    contiki-sky.a(leds.o) (leds_arch_init)
contiki-sky.a(watchdog.o)     obj_sky/contiki-sky-main.o (watchdog_start)
contiki-sky.a(rtimer-arch.o)  sky-collect.co (rtimer_arch_now)
contiki-sky.a(autostart.o)    obj_sky/contiki-sky-main.o (autostart_start)
contiki-sky.a(ctimer.o)       obj_sky/contiki-sky-main.o (ctimer_init)
contiki-sky.a(energest.o)     obj_sky/contiki-sky-main.o (energest_init)
contiki-sky.a(etimer.o)       contiki-sky.a(clock.o) (etimer_request_poll)
contiki-sky.a(process.o)      contiki-sky.a(ctimer.o) (process_current)
contiki-sky.a(rtimer.o)       obj_sky/contiki-sky-main.o (rtimer_init)
contiki-sky.a(timer.o)        obj_sky/contiki-sky-main.o (timer_set)
contiki-sky.a(list.o)         contiki-sky.a(ctimer.o) (list_init)
contiki-sky.a(random.o)       obj_sky/contiki-sky-main.o (random_init)
contiki-sky.a(uip.o)          contiki-sky.a(slip.o) (uip_aligned_buf)
contiki-sky.a(uip-fw.o)       obj_sky/contiki-sky-main.o (uip_fw_default)
contiki-sky.a(uip-fw-drv.o)   obj_sky/contiki-sky-main.o (uip_fw_process)
contiki-sky.a(uip-over-mesh.o)
                              obj_sky/contiki-sky-main.o (uip_over_mesh_init)
contiki-sky.a(tcpip.o)        contiki-sky.a(uip-fw-drv.o) (tcpip_set_outputfunc)
contiki-sky.a(collect.o)      sky-collect.co (collect_open)
contiki-sky.a(collect-link-es)
                              contiki-sky.a(collect.o) (collect_link_estimate_num_estimates)
contiki-sky.a(collect-neighbo)
                              contiki-sky.a(collect.o) (collect_neighbor_init)
contiki-sky.a(packetqueue.o)  contiki-sky.a(collect.o) (packetqueue_enqueue_packetbuf)
contiki-sky.a(rime.o)         obj_sky/contiki-sky-main.o (rime_driver)
contiki-sky.a(route.o)        contiki-sky.a(uip-over-mesh.o) (route_init)
contiki-sky.a(route-discovery)
                              contiki-sky.a(uip-over-mesh.o) (route_discovery_open)
contiki-sky.a(trickle.o)      contiki-sky.a(uip-over-mesh.o) (trickle_open)
contiki-sky.a(unicast.o)      contiki-sky.a(uip-over-mesh.o) (unicast_open)
contiki-sky.a(csma.o)         sky-collect.co (csma_driver)
contiki-sky.a(mac.o)          contiki-sky.a(csma.o) (mac_call_sent_callback)
contiki-sky.a(linkaddr.o)     sky-collect.co (linkaddr_copy)
contiki-sky.a(packetbuf.o)    contiki-sky.a(rime.o) (packetbuf_compact)
contiki-sky.a(queuebuf.o)     contiki-sky.a(rime.o) (queuebuf_init)
contiki-sky.a(contikimac.o)   obj_sky/contiki-sky-main.o (contikimac_driver)
contiki-sky.a(contikimac-fram)
                              contiki-sky.a(contikimac.o) (contikimac_framer)
contiki-sky.a(nullsec.o)      obj_sky/contiki-sky-main.o (nullsec_driver)
contiki-sky.a(sht11.o)        contiki-sky.a(sht11-sensor.o) (sht11_init)
contiki-sky.a(spi.o)          contiki-sky.a(xmem.o) (spi_init)
contiki-sky.a(uip-ipchksum.o)
                              contiki-sky.a(slip.o) (uip_ipchksum)
contiki-sky.a(compower.o)     contiki-sky.a(contikimac.o) (compower_idle_activity)
contiki-sky.a(memb.o)         contiki-sky.a(collect-neighbo) (memb_init)
contiki-sky.a(abc.o)          contiki-sky.a(rime.o) (abc_input)
contiki-sky.a(announcement.o)
                              contiki-sky.a(rime.o) (announcement_init)
contiki-sky.a(broadcast-annou)
                              contiki-sky.a(rime.o) (broadcast_announcement_init)
contiki-sky.a(broadcast.o)    contiki-sky.a(trickle.o) (broadcast_open)
contiki-sky.a(chameleon.o)    contiki-sky.a(rime.o) (chameleon_init)
contiki-sky.a(channel.o)      contiki-sky.a(chameleon.o) (channel_init)
contiki-sky.a(netflood.o)     contiki-sky.a(route-discovery) (netflood_open)
contiki-sky.a(framer-802154.o)
                              contiki-sky.a(contikimac-fram) (framer_802154)
contiki-sky.a(framer.o)       contiki-sky.a(framer-802154.o) (framer_canonical_create_and_secure)
contiki-sky.a(mac-sequence.o)
                              contiki-sky.a(contikimac.o) (mac_sequence_is_duplicate)
contiki-sky.a(chameleon-bitop)
                              contiki-sky.a(chameleon.o) (chameleon_bitopt)
contiki-sky.a(ipolite.o)      contiki-sky.a(netflood.o) (ipolite_open)
contiki-sky.a(frame802154.o)  contiki-sky.a(framer-802154.o) (frame802154_hdrlen)
/usr/local/msp430/bin/../lib/gcc/msp430/4.7.0/mmpy-16/libgcc.a(_mulsi3.o)
                              contiki-sky.a(csma.o) (__mulsi3)
/usr/local/msp430/bin/../lib/gcc/msp430/4.7.0/mmpy-16/libgcc.a(_divmod16.o)
                              sky-collect.co (__divhi3)
/usr/local/msp430/bin/../lib/gcc/msp430/4.7.0/mmpy-16/libgcc.a(_udivmod32.o)
                              obj_sky/contiki-sky-main.o (__udivsi3)
/usr/local/msp430/bin/../lib/gcc/msp430/4.7.0/mmpy-16/libgcc.a(_udivmod16.o)
                              /usr/local/msp430/bin/../lib/gcc/msp430/4.7.0/mmpy-16/libgcc.a(_divmod16.o) (__ext_udivmod16)
/usr/local/msp430/bin/../lib/gcc/msp430/4.7.0/../../../../msp430/lib/mmpy-16/libc.a(printf.o)
                              sky-collect.co (printf)
/usr/local/msp430/bin/../lib/gcc/msp430/4.7.0/../../../../msp430/lib/mmpy-16/libc.a(vuprintf.o)
                              /usr/local/msp430/bin/../lib/gcc/msp430/4.7.0/../../../../msp430/lib/mmpy-16/libc.a(printf.o) (vuprintf)
/usr/local/msp430/bin/../lib/gcc/msp430/4.7.0/../../../../msp430/lib/mmpy-16/libc.a(puts.o)
                              obj_sky/contiki-sky-main.o (puts)
/usr/local/msp430/bin/../lib/gcc/msp430/4.7.0/../../../../msp430/lib/mmpy-16/libc.a(rand.o)
                              contiki-sky.a(random.o) (rand)
/usr/local/msp430/bin/../lib/gcc/msp430/4.7.0/../../../../msp430/lib/mmpy-16/libc.a(strncmp.o)
                              contiki-sky.a(sensors.o) (strncmp)
/usr/local/msp430/bin/../lib/gcc/msp430/4.7.0/../../../../msp430/lib/mmpy-16/libc.a(memcmp.o)
                              contiki-sky.a(slip.o) (memcmp)
/usr/local/msp430/bin/../lib/gcc/msp430/4.7.0/../../../../msp430/lib/mmpy-16/libc.a(memcpy.o)
                              contiki-sky.a(slip.o) (memcpy)
/usr/local/msp430/bin/../lib/gcc/msp430/4.7.0/../../../../msp430/lib/mmpy-16/libc.a(memset.o)
                              obj_sky/contiki-sky-main.o (memset)
/usr/local/msp430/bin/../lib/gcc/msp430/4.7.0/mmpy-16/libgcc.a(_udivmod64.o)
                              /usr/local/msp430/bin/../lib/gcc/msp430/4.7.0/../../../../msp430/lib/mmpy-16/libc.a(vuprintf.o) (__udivdi3)
/usr/local/msp430/bin/../lib/gcc/msp430/4.7.0/mmpy-16/libcrt0.a(_reset_vector__.o)
                              (_reset_vector__)
/usr/local/msp430/bin/../lib/gcc/msp430/4.7.0/mmpy-16/libcrt0.a(__watchdog_support.o)
                              /usr/local/msp430/bin/../lib/gcc/msp430/4.7.0/mmpy-16/libcrt0.a(_reset_vector__.o) (__watchdog_support)
/usr/local/msp430/bin/../lib/gcc/msp430/4.7.0/mmpy-16/libcrt0.a(__init_stack.o)
                              /usr/local/msp430/bin/../lib/gcc/msp430/4.7.0/mmpy-16/libcrt0.a(_reset_vector__.o) (__init_stack)
/usr/local/msp430/bin/../lib/gcc/msp430/4.7.0/mmpy-16/libcrt0.a(__low_level_init.o)
                              /usr/local/msp430/bin/../lib/gcc/msp430/4.7.0/mmpy-16/libcrt0.a(_reset_vector__.o) (__low_level_init)
/usr/local/msp430/bin/../lib/gcc/msp430/4.7.0/mmpy-16/libcrt0.a(_copy_data.o)
                              /usr/local/msp430/bin/../lib/gcc/msp430/4.7.0/mmpy-16/libcrt0.a(_reset_vector__.o) (__do_copy_data)
/usr/local/msp430/bin/../lib/gcc/msp430/4.7.0/mmpy-16/libcrt0.a(_clear_bss.o)
                              /usr/local/msp430/bin/../lib/gcc/msp430/4.7.0/mmpy-16/libcrt0.a(_reset_vector__.o) (__do_clear_bss)
/usr/local/msp430/bin/../lib/gcc/msp430/4.7.0/mmpy-16/libcrt0.a(__stop_progExec__.o)
                              /usr/local/msp430/bin/../lib/gcc/msp430/4.7.0/mmpy-16/libcrt0.a(_reset_vector__.o) (__stop_progExec__)
/usr/local/msp430/bin/../lib/gcc/msp430/4.7.0/mmpy-16/libcrt0.a(_endless_loop__.o)
                              /usr/local/msp430/bin/../lib/gcc/msp430/4.7.0/mmpy-16/libcrt0.a(_reset_vector__.o) (_endless_loop__)
/usr/local/msp430/bin/../lib/gcc/msp430/4.7.0/mmpy-16/libcrt0.a(_unexpected_.o)
                              /usr/local/msp430/bin/../lib/gcc/msp430/4.7.0/mmpy-16/crt0ivtbl16.o (_unexpected_)

Allocating common symbols
Common symbol       size              file

compower_idle_activity
                    0x8               contiki-sky.a(compower.o)
energest_total_time
                    0x30              contiki-sky.a(energest.o)
cc2420_last_rssi    0x1               contiki-sky.a(cc2420.o)
tcpip_is_forwarding
                    0x1               contiki-sky.a(tcpip.o)
uip_len             0x2               contiki-sky.a(uip.o)
energest_total_count
                    0x2               contiki-sky.a(energest.o)
cc2420_sfd_start_time
                    0x2               contiki-sky.a(cc2420.o)
cc2420_time_of_departure
                    0x2               contiki-sky.a(cc2420.o)
cc2420_time_of_arrival
                    0x2               contiki-sky.a(cc2420.o)
slip_active         0x1               contiki-sky.a(slip.o)
uip_sappdata        0x2               contiki-sky.a(uip.o)
energest_current_mode
                    0xc               contiki-sky.a(energest.o)
packetbuf_addrs     0x8               contiki-sky.a(packetbuf.o)
uip_acc32           0x4               contiki-sky.a(uip.o)
process_maxevents   0x1               contiki-sky.a(process.o)
uip_aligned_buf     0x6c              contiki-sky.a(uip.o)
uip_flags           0x1               contiki-sky.a(uip.o)
cc2420_last_correlation
                    0x1               contiki-sky.a(cc2420.o)
linkaddr_node_addr  0x2               contiki-sky.a(linkaddr.o)
cc2420_authority_level_of_sender
                    0x2               contiki-sky.a(cc2420.o)
uip_udp_conn        0x2               contiki-sky.a(uip.o)
packetbuf_attrs     0x34              contiki-sky.a(packetbuf.o)
msp430_dco_required
                    0x2               contiki-sky.a(msp430.o)
cc2420_sfd_counter  0x1               contiki-sky.a(cc2420.o)
uip_appdata         0x2               contiki-sky.a(uip.o)
uip_conn            0x2               contiki-sky.a(uip.o)
tcpip_event         0x1               contiki-sky.a(tcpip.o)
uip_conns           0x80              contiki-sky.a(uip.o)
uip_listenports     0x10              contiki-sky.a(uip.o)
uip_draddr          0x4               contiki-sky.a(uip.o)
stats               0x38              contiki-sky.a(collect.o)
energest_current_time
                    0x18              contiki-sky.a(energest.o)
sensors_flags       0x2               contiki-sky.a(contiki-sky-pla)
cc2420_sfd_end_time
                    0x2               contiki-sky.a(cc2420.o)
uip_netmask         0x4               contiki-sky.a(uip.o)
sensors_event       0x1               contiki-sky.a(sensors.o)
uip_hostaddr        0x4               contiki-sky.a(uip.o)
ds2411_id           0x8               contiki-sky.a(ds2411.o)
uip_slen            0x2               contiki-sky.a(uip.o)
uip_udp_conns       0xa8              contiki-sky.a(uip.o)

Discarded input sections

 .data          0x00000000        0x0 /usr/local/msp430/bin/../lib/gcc/msp430/4.7.0/mmpy-16/crt0ivtbl16.o
 .bss           0x00000000        0x0 /usr/local/msp430/bin/../lib/gcc/msp430/4.7.0/mmpy-16/crt0ivtbl16.o
 .text.crt0     0x00000000        0x0 /usr/local/msp430/bin/../lib/gcc/msp430/4.7.0/mmpy-16/crt0ivtbl16.o
 .text          0x00000000        0x0 sky-collect.co
 .text          0x00000000        0x0 obj_sky/contiki-sky-main.o
 .text.uip_log  0x00000000        0x6 obj_sky/contiki-sky-main.o
 .text          0x00000000        0x0 contiki-sky.a(contiki-sky-pla)
 .bss           0x00000000        0x0 contiki-sky.a(contiki-sky-pla)
 .text          0x00000000        0x0 contiki-sky.a(sht11-sensor.o)
 .bss           0x00000000        0x0 contiki-sky.a(sht11-sensor.o)
 .text          0x00000000        0x0 contiki-sky.a(light-sensor.o)
 .data          0x00000000        0x0 contiki-sky.a(light-sensor.o)
 .bss           0x00000000        0x0 contiki-sky.a(light-sensor.o)
 .text          0x00000000        0x0 contiki-sky.a(button-sensor.o)
 .data          0x00000000        0x0 contiki-sky.a(button-sensor.o)
 .text          0x00000000        0x0 contiki-sky.a(ds2411.o)
 .data          0x00000000        0x0 contiki-sky.a(ds2411.o)
 .bss           0x00000000        0x0 contiki-sky.a(ds2411.o)
 .text          0x00000000        0x0 contiki-sky.a(xmem.o)
 .data          0x00000000        0x0 contiki-sky.a(xmem.o)
 .bss           0x00000000        0x0 contiki-sky.a(xmem.o)
 .text.write_enable
                0x00000000       0x28 contiki-sky.a(xmem.o)
 .text.xmem_pwrite
                0x00000000      0x13a contiki-sky.a(xmem.o)
 .text.xmem_erase
                0x00000000       0xba contiki-sky.a(xmem.o)
 .text          0x00000000        0x0 contiki-sky.a(node-id.o)
 .data          0x00000000        0x0 contiki-sky.a(node-id.o)
 .text.node_id_burn
                0x00000000       0x36 contiki-sky.a(node-id.o)
 .text          0x00000000        0x0 contiki-sky.a(sensors.o)
 .text.sensors_first
                0x00000000        0x6 contiki-sky.a(sensors.o)
 .text.sensors_next
                0x00000000       0x24 contiki-sky.a(sensors.o)
 .text.sensors_find
                0x00000000       0x50 contiki-sky.a(sensors.o)
 .text          0x00000000        0x0 contiki-sky.a(cc2420.o)
 .text.cc2420_get_channel
                0x00000000        0x6 contiki-sky.a(cc2420.o)
 .text          0x00000000        0x0 contiki-sky.a(cc2420-arch.o)
 .data          0x00000000        0x0 contiki-sky.a(cc2420-arch.o)
 .bss           0x00000000        0x0 contiki-sky.a(cc2420-arch.o)
 .text          0x00000000        0x0 contiki-sky.a(sky-sensors.o)
 .data          0x00000000        0x0 contiki-sky.a(sky-sensors.o)
 .text          0x00000000        0x0 contiki-sky.a(uart1.o)
 .data          0x00000000        0x0 contiki-sky.a(uart1.o)
 .text          0x00000000        0x0 contiki-sky.a(slip_uart1.o)
 .data          0x00000000        0x0 contiki-sky.a(slip_uart1.o)
 .text          0x00000000        0x0 contiki-sky.a(slip.o)
 .text          0x00000000        0x0 contiki-sky.a(msp430.o)
 .bss           0x00000000        0x0 contiki-sky.a(msp430.o)
 .text.msp430_remove_lpm_req
                0x00000000        0xc contiki-sky.a(msp430.o)
 .text.sbrk     0x00000000       0x1e contiki-sky.a(msp430.o)
 .text          0x00000000        0x0 contiki-sky.a(clock.o)
 .data          0x00000000        0x0 contiki-sky.a(clock.o)
 .text.clock_set
                0x00000000       0x16 contiki-sky.a(clock.o)
 .text.clock_fine_max
                0x00000000        0x6 contiki-sky.a(clock.o)
 .text.clock_fine
                0x00000000        0xc contiki-sky.a(clock.o)
 .text.clock_set_seconds
                0x00000000       0x1c contiki-sky.a(clock.o)
 .text.clock_seconds
                0x00000000       0x1a contiki-sky.a(clock.o)
 .text.clock_counter
                0x00000000        0xe contiki-sky.a(clock.o)
 .text          0x00000000        0x0 contiki-sky.a(leds.o)
 .data          0x00000000        0x0 contiki-sky.a(leds.o)
 .text.leds_get
                0x00000000        0x6 contiki-sky.a(leds.o)
 .text.leds_set
                0x00000000        0x6 contiki-sky.a(leds.o)
 .text.leds_toggle
                0x00000000        0xa contiki-sky.a(leds.o)
 .text.leds_blink
                0x00000000       0x20 contiki-sky.a(leds.o)
 .text          0x00000000        0x0 contiki-sky.a(leds-arch.o)
 .data          0x00000000        0x0 contiki-sky.a(leds-arch.o)
 .bss           0x00000000        0x0 contiki-sky.a(leds-arch.o)
 .text.leds_arch_get
                0x00000000       0x3e contiki-sky.a(leds-arch.o)
 .text          0x00000000        0x0 contiki-sky.a(watchdog.o)
 .data          0x00000000        0x0 contiki-sky.a(watchdog.o)
 .text.watchdog_reboot
                0x00000000        0x6 contiki-sky.a(watchdog.o)
 .text          0x00000000        0x0 contiki-sky.a(rtimer-arch.o)
 .data          0x00000000        0x0 contiki-sky.a(rtimer-arch.o)
 .bss           0x00000000        0x0 contiki-sky.a(rtimer-arch.o)
 .text          0x00000000        0x0 contiki-sky.a(autostart.o)
 .data          0x00000000        0x0 contiki-sky.a(autostart.o)
 .bss           0x00000000        0x0 contiki-sky.a(autostart.o)
 .text.autostart_exit
                0x00000000       0x14 contiki-sky.a(autostart.o)
 .text          0x00000000        0x0 contiki-sky.a(ctimer.o)
 .text.ctimer_restart
                0x00000000       0x30 contiki-sky.a(ctimer.o)
 .text.ctimer_expired
                0x00000000       0x30 contiki-sky.a(ctimer.o)
 .text          0x00000000        0x0 contiki-sky.a(energest.o)
 .data          0x00000000        0x0 contiki-sky.a(energest.o)
 .bss           0x00000000        0x0 contiki-sky.a(energest.o)
 .text.energest_leveldevice_leveltime
                0x00000000        0x6 contiki-sky.a(energest.o)
 .text          0x00000000        0x0 contiki-sky.a(etimer.o)
 .text.etimer_adjust
                0x00000000       0x1a contiki-sky.a(etimer.o)
 .text.etimer_expiration_time
                0x00000000       0x14 contiki-sky.a(etimer.o)
 .text.etimer_start_time
                0x00000000        0x8 contiki-sky.a(etimer.o)
 .text          0x00000000        0x0 contiki-sky.a(process.o)
 .data          0x00000000        0x0 contiki-sky.a(process.o)
 .text.process_exit
                0x00000000        0xa contiki-sky.a(process.o)
 .text.process_is_running
                0x00000000        0xe contiki-sky.a(process.o)
 .text          0x00000000        0x0 contiki-sky.a(rtimer.o)
 .data          0x00000000        0x0 contiki-sky.a(rtimer.o)
 .text          0x00000000        0x0 contiki-sky.a(timer.o)
 .data          0x00000000        0x0 contiki-sky.a(timer.o)
 .bss           0x00000000        0x0 contiki-sky.a(timer.o)
 .text.timer_remaining
                0x00000000       0x28 contiki-sky.a(timer.o)
 .text          0x00000000        0x0 contiki-sky.a(list.o)
 .data          0x00000000        0x0 contiki-sky.a(list.o)
 .bss           0x00000000        0x0 contiki-sky.a(list.o)
 .text.list_copy
                0x00000000        0x6 contiki-sky.a(list.o)
 .text.list_pop
                0x00000000        0xe contiki-sky.a(list.o)
 .text.list_insert
                0x00000000       0x16 contiki-sky.a(list.o)
 .text          0x00000000        0x0 contiki-sky.a(random.o)
 .data          0x00000000        0x0 contiki-sky.a(random.o)
 .bss           0x00000000        0x0 contiki-sky.a(random.o)
 .text          0x00000000        0x0 contiki-sky.a(uip.o)
 .data          0x00000000        0x0 contiki-sky.a(uip.o)
 .text.uip_setipid
                0x00000000        0x6 contiki-sky.a(uip.o)
 .text.uip_connect
                0x00000000      0x10a contiki-sky.a(uip.o)
 .text.uip_udp_new
                0x00000000       0xba contiki-sky.a(uip.o)
 .text.uip_listen
                0x00000000       0x2c contiki-sky.a(uip.o)
 .text.uip_htonl
                0x00000000       0x2e contiki-sky.a(uip.o)
 .text.uip_send
                0x00000000       0x2c contiki-sky.a(uip.o)
 .text          0x00000000        0x0 contiki-sky.a(uip-fw.o)
 .data          0x00000000        0x0 contiki-sky.a(uip-fw.o)
 .text.uip_fw_init
                0x00000000       0x1c contiki-sky.a(uip-fw.o)
 .text.uip_fw_register
                0x00000000        0xc contiki-sky.a(uip-fw.o)
 .text          0x00000000        0x0 contiki-sky.a(uip-fw-drv.o)
 .bss           0x00000000        0x0 contiki-sky.a(uip-fw-drv.o)
 .text          0x00000000        0x0 contiki-sky.a(uip-over-mesh.o)
 .data          0x00000000        0x0 contiki-sky.a(uip-over-mesh.o)
 .text          0x00000000        0x0 contiki-sky.a(tcpip.o)
 .text.tcp_unlisten
                0x00000000       0x32 contiki-sky.a(tcpip.o)
 .text.tcp_listen
                0x00000000       0x3a contiki-sky.a(tcpip.o)
 .text.tcp_attach
                0x00000000        0xc contiki-sky.a(tcpip.o)
 .text.udp_attach
                0x00000000        0xc contiki-sky.a(tcpip.o)
 .text.udp_new  0x00000000       0x1a contiki-sky.a(tcpip.o)
 .text.udp_broadcast_new
                0x00000000       0x2e contiki-sky.a(tcpip.o)
 .text.tcpip_poll_udp
                0x00000000        0xe contiki-sky.a(tcpip.o)
 .text.tcpip_poll_tcp
                0x00000000        0xe contiki-sky.a(tcpip.o)
 .text.tcp_connect
                0x00000000       0x26 contiki-sky.a(tcpip.o)
 .text          0x00000000        0x0 contiki-sky.a(collect.o)
 .text.collect_set_keepalive
                0x00000000        0xe contiki-sky.a(collect.o)
 .text.collect_parent
                0x00000000        0x6 contiki-sky.a(collect.o)
 .text.collect_purge
                0x00000000       0x34 contiki-sky.a(collect.o)
 .text.collect_print_stats
                0x00000000        0x2 contiki-sky.a(collect.o)
 .text          0x00000000        0x0 contiki-sky.a(collect-link-es)
 .data          0x00000000        0x0 contiki-sky.a(collect-link-es)
 .bss           0x00000000        0x0 contiki-sky.a(collect-link-es)
 .text.collect_link_estimate_update_rx
                0x00000000        0x2 contiki-sky.a(collect-link-es)
 .text          0x00000000        0x0 contiki-sky.a(collect-neighbo)
 .text.collect_neighbor_list_remove
                0x00000000       0x2e contiki-sky.a(collect-neighbo)
 .text.collect_neighbor_list_num
                0x00000000       0x12 contiki-sky.a(collect-neighbo)
 .text.collect_neighbor_list_get
                0x00000000       0x30 contiki-sky.a(collect-neighbo)
 .text.collect_neighbor_list_purge
                0x00000000       0x2c contiki-sky.a(collect-neighbo)
 .text.collect_neighbor_rx
                0x00000000       0x18 contiki-sky.a(collect-neighbo)
 .text          0x00000000        0x0 contiki-sky.a(packetqueue.o)
 .data          0x00000000        0x0 contiki-sky.a(packetqueue.o)
 .bss           0x00000000        0x0 contiki-sky.a(packetqueue.o)
 .text.packetqueue_init
                0x00000000       0x18 contiki-sky.a(packetqueue.o)
 .text.packetqueue_ptr
                0x00000000        0xe contiki-sky.a(packetqueue.o)
 .text          0x00000000        0x0 contiki-sky.a(rime.o)
 .data          0x00000000        0x0 contiki-sky.a(rime.o)
 .text.rime_sniffer_add
                0x00000000        0xc contiki-sky.a(rime.o)
 .text.rime_sniffer_remove
                0x00000000        0xc contiki-sky.a(rime.o)
 .text          0x00000000        0x0 contiki-sky.a(route.o)
 .text.route_flush_all
                0x00000000       0x1a contiki-sky.a(route.o)
 .text.route_num
                0x00000000       0x1e contiki-sky.a(route.o)
 .text.route_get
                0x00000000       0x26 contiki-sky.a(route.o)
 .text          0x00000000        0x0 contiki-sky.a(route-discovery)
 .data          0x00000000        0x0 contiki-sky.a(route-discovery)
 .text.route_discovery_close
                0x00000000       0x20 contiki-sky.a(route-discovery)
 .text          0x00000000        0x0 contiki-sky.a(trickle.o)
 .data          0x00000000        0x0 contiki-sky.a(trickle.o)
 .bss           0x00000000        0x0 contiki-sky.a(trickle.o)
 .text.trickle_close
                0x00000000       0x20 contiki-sky.a(trickle.o)
 .text          0x00000000        0x0 contiki-sky.a(unicast.o)
 .data          0x00000000        0x0 contiki-sky.a(unicast.o)
 .bss           0x00000000        0x0 contiki-sky.a(unicast.o)
 .text          0x00000000        0x0 contiki-sky.a(csma.o)
 .text          0x00000000        0x0 contiki-sky.a(mac.o)
 .data          0x00000000        0x0 contiki-sky.a(mac.o)
 .bss           0x00000000        0x0 contiki-sky.a(mac.o)
 .text          0x00000000        0x0 contiki-sky.a(linkaddr.o)
 .data          0x00000000        0x0 contiki-sky.a(linkaddr.o)
 .bss           0x00000000        0x0 contiki-sky.a(linkaddr.o)
 .text          0x00000000        0x0 contiki-sky.a(packetbuf.o)
 .data          0x00000000        0x0 contiki-sky.a(packetbuf.o)
 .text.packetbuf_clear_hdr
                0x00000000        0x8 contiki-sky.a(packetbuf.o)
 .text.packetbuf_copyto_hdr
                0x00000000       0x1c contiki-sky.a(packetbuf.o)
 .text.packetbuf_hdr_remove
                0x00000000        0x6 contiki-sky.a(packetbuf.o)
 .text          0x00000000        0x0 contiki-sky.a(queuebuf.o)
 .text.queuebuf_numfree
                0x00000000        0xa contiki-sky.a(queuebuf.o)
 .text.queuebuf_addr
                0x00000000        0xe contiki-sky.a(queuebuf.o)
 .text.queuebuf_debug_print
                0x00000000        0x2 contiki-sky.a(queuebuf.o)
 .text          0x00000000        0x0 contiki-sky.a(contikimac.o)
 .data          0x00000000        0x0 contiki-sky.a(contikimac.o)
 .text.contikimac_debug_print
                0x00000000        0x4 contiki-sky.a(contikimac.o)
 .text          0x00000000        0x0 contiki-sky.a(contikimac-fram)
 .data          0x00000000        0x0 contiki-sky.a(contikimac-fram)
 .bss           0x00000000        0x0 contiki-sky.a(contikimac-fram)
 .text          0x00000000        0x0 contiki-sky.a(nullsec.o)
 .data          0x00000000        0x0 contiki-sky.a(nullsec.o)
 .bss           0x00000000        0x0 contiki-sky.a(nullsec.o)
 .text          0x00000000        0x0 contiki-sky.a(sht11.o)
 .data          0x00000000        0x0 contiki-sky.a(sht11.o)
 .bss           0x00000000        0x0 contiki-sky.a(sht11.o)
 .text          0x00000000        0x0 contiki-sky.a(spi.o)
 .data          0x00000000        0x0 contiki-sky.a(spi.o)
 .bss           0x00000000        0x1 contiki-sky.a(spi.o)
 .text          0x00000000        0x0 contiki-sky.a(uip-ipchksum.o)
 .data          0x00000000        0x0 contiki-sky.a(uip-ipchksum.o)
 .bss           0x00000000        0x0 contiki-sky.a(uip-ipchksum.o)
 .text          0x00000000        0x0 contiki-sky.a(compower.o)
 .data          0x00000000        0x0 contiki-sky.a(compower.o)
 .text.compower_init
                0x00000000       0x12 contiki-sky.a(compower.o)
 .text.compower_accumulate_attrs
                0x00000000       0x20 contiki-sky.a(compower.o)
 .text          0x00000000        0x0 contiki-sky.a(memb.o)
 .data          0x00000000        0x0 contiki-sky.a(memb.o)
 .bss           0x00000000        0x0 contiki-sky.a(memb.o)
 .text.memb_numfree
                0x00000000       0x26 contiki-sky.a(memb.o)
 .text          0x00000000        0x0 contiki-sky.a(abc.o)
 .data          0x00000000        0x0 contiki-sky.a(abc.o)
 .bss           0x00000000        0x0 contiki-sky.a(abc.o)
 .text          0x00000000        0x0 contiki-sky.a(announcement.o)
 .data          0x00000000        0x0 contiki-sky.a(announcement.o)
 .text.announcement_remove_value
                0x00000000       0x22 contiki-sky.a(announcement.o)
 .text.announcement_listen
                0x00000000        0xc contiki-sky.a(announcement.o)
 .text.announcement_register_listen_callback
                0x00000000        0x6 contiki-sky.a(announcement.o)
 .text          0x00000000        0x0 contiki-sky.a(broadcast-annou)
 .data          0x00000000        0x0 contiki-sky.a(broadcast-annou)
 .text.broadcast_announcement_stop
                0x00000000       0x22 contiki-sky.a(broadcast-annou)
 .text.broadcast_announcement_beacon_interval
                0x00000000        0xa contiki-sky.a(broadcast-annou)
 .text          0x00000000        0x0 contiki-sky.a(broadcast.o)
 .data          0x00000000        0x0 contiki-sky.a(broadcast.o)
 .bss           0x00000000        0x0 contiki-sky.a(broadcast.o)
 .text          0x00000000        0x0 contiki-sky.a(chameleon.o)
 .data          0x00000000        0x0 contiki-sky.a(chameleon.o)
 .bss           0x00000000        0x0 contiki-sky.a(chameleon.o)
 .text          0x00000000        0x0 contiki-sky.a(channel.o)
 .data          0x00000000        0x0 contiki-sky.a(channel.o)
 .text          0x00000000        0x0 contiki-sky.a(netflood.o)
 .data          0x00000000        0x0 contiki-sky.a(netflood.o)
 .bss           0x00000000        0x0 contiki-sky.a(netflood.o)
 .text.netflood_close
                0x00000000        0x6 contiki-sky.a(netflood.o)
 .text.netflood_cancel
                0x00000000        0x6 contiki-sky.a(netflood.o)
 .text          0x00000000        0x0 contiki-sky.a(framer-802154.o)
 .data          0x00000000        0x0 contiki-sky.a(framer-802154.o)
 .text          0x00000000        0x0 contiki-sky.a(framer.o)
 .data          0x00000000        0x0 contiki-sky.a(framer.o)
 .bss           0x00000000        0x0 contiki-sky.a(framer.o)
 .text          0x00000000        0x0 contiki-sky.a(mac-sequence.o)
 .data          0x00000000        0x0 contiki-sky.a(mac-sequence.o)
 .text          0x00000000        0x0 contiki-sky.a(chameleon-bitop)
 .data          0x00000000        0x0 contiki-sky.a(chameleon-bitop)
 .bss           0x00000000        0x0 contiki-sky.a(chameleon-bitop)
 .text          0x00000000        0x0 contiki-sky.a(ipolite.o)
 .data          0x00000000        0x0 contiki-sky.a(ipolite.o)
 .bss           0x00000000        0x0 contiki-sky.a(ipolite.o)
 .text.ipolite_close
                0x00000000       0x26 contiki-sky.a(ipolite.o)
 .text.ipolite_cancel
                0x00000000       0x20 contiki-sky.a(ipolite.o)
 .text          0x00000000        0x0 contiki-sky.a(frame802154.o)
 .data          0x00000000        0x0 contiki-sky.a(frame802154.o)
 .bss           0x00000000        0x0 contiki-sky.a(frame802154.o)
 .text          0x00000000        0x0 /usr/local/msp430/bin/../lib/gcc/msp430/4.7.0/mmpy-16/libgcc.a(_mulsi3.o)
 .data          0x00000000        0x0 /usr/local/msp430/bin/../lib/gcc/msp430/4.7.0/mmpy-16/libgcc.a(_mulsi3.o)
 .bss           0x00000000        0x0 /usr/local/msp430/bin/../lib/gcc/msp430/4.7.0/mmpy-16/libgcc.a(_mulsi3.o)
 .text          0x00000000        0x0 /usr/local/msp430/bin/../lib/gcc/msp430/4.7.0/mmpy-16/libgcc.a(_divmod16.o)
 .data          0x00000000        0x0 /usr/local/msp430/bin/../lib/gcc/msp430/4.7.0/mmpy-16/libgcc.a(_divmod16.o)
 .bss           0x00000000        0x0 /usr/local/msp430/bin/../lib/gcc/msp430/4.7.0/mmpy-16/libgcc.a(_divmod16.o)
 .text          0x00000000        0x0 /usr/local/msp430/bin/../lib/gcc/msp430/4.7.0/mmpy-16/libgcc.a(_udivmod32.o)
 .data          0x00000000        0x0 /usr/local/msp430/bin/../lib/gcc/msp430/4.7.0/mmpy-16/libgcc.a(_udivmod32.o)
 .bss           0x00000000        0x0 /usr/local/msp430/bin/../lib/gcc/msp430/4.7.0/mmpy-16/libgcc.a(_udivmod32.o)
 .text          0x00000000        0x0 /usr/local/msp430/bin/../lib/gcc/msp430/4.7.0/mmpy-16/libgcc.a(_udivmod16.o)
 .data          0x00000000        0x0 /usr/local/msp430/bin/../lib/gcc/msp430/4.7.0/mmpy-16/libgcc.a(_udivmod16.o)
 .bss           0x00000000        0x0 /usr/local/msp430/bin/../lib/gcc/msp430/4.7.0/mmpy-16/libgcc.a(_udivmod16.o)
 .text          0x00000000        0x0 /usr/local/msp430/bin/../lib/gcc/msp430/4.7.0/../../../../msp430/lib/mmpy-16/libc.a(printf.o)
 .data          0x00000000        0x0 /usr/local/msp430/bin/../lib/gcc/msp430/4.7.0/../../../../msp430/lib/mmpy-16/libc.a(printf.o)
 .bss           0x00000000        0x0 /usr/local/msp430/bin/../lib/gcc/msp430/4.7.0/../../../../msp430/lib/mmpy-16/libc.a(printf.o)
 .text.vprintf  0x00000000        0xe /usr/local/msp430/bin/../lib/gcc/msp430/4.7.0/../../../../msp430/lib/mmpy-16/libc.a(printf.o)
 .text          0x00000000        0x0 /usr/local/msp430/bin/../lib/gcc/msp430/4.7.0/../../../../msp430/lib/mmpy-16/libc.a(vuprintf.o)
 .data          0x00000000        0x0 /usr/local/msp430/bin/../lib/gcc/msp430/4.7.0/../../../../msp430/lib/mmpy-16/libc.a(vuprintf.o)
 .bss           0x00000000        0x0 /usr/local/msp430/bin/../lib/gcc/msp430/4.7.0/../../../../msp430/lib/mmpy-16/libc.a(vuprintf.o)
 .text          0x00000000        0x0 /usr/local/msp430/bin/../lib/gcc/msp430/4.7.0/../../../../msp430/lib/mmpy-16/libc.a(puts.o)
 .data          0x00000000        0x0 /usr/local/msp430/bin/../lib/gcc/msp430/4.7.0/../../../../msp430/lib/mmpy-16/libc.a(puts.o)
 .bss           0x00000000        0x0 /usr/local/msp430/bin/../lib/gcc/msp430/4.7.0/../../../../msp430/lib/mmpy-16/libc.a(puts.o)
 .text          0x00000000        0x0 /usr/local/msp430/bin/../lib/gcc/msp430/4.7.0/../../../../msp430/lib/mmpy-16/libc.a(rand.o)
 .data          0x00000000        0x0 /usr/local/msp430/bin/../lib/gcc/msp430/4.7.0/../../../../msp430/lib/mmpy-16/libc.a(rand.o)
 .bss           0x00000000        0x0 /usr/local/msp430/bin/../lib/gcc/msp430/4.7.0/../../../../msp430/lib/mmpy-16/libc.a(rand.o)
 .text.rand_r   0x00000000       0x24 /usr/local/msp430/bin/../lib/gcc/msp430/4.7.0/../../../../msp430/lib/mmpy-16/libc.a(rand.o)
 .text          0x00000000        0x0 /usr/local/msp430/bin/../lib/gcc/msp430/4.7.0/../../../../msp430/lib/mmpy-16/libc.a(strncmp.o)
 .data          0x00000000        0x0 /usr/local/msp430/bin/../lib/gcc/msp430/4.7.0/../../../../msp430/lib/mmpy-16/libc.a(strncmp.o)
 .bss           0x00000000        0x0 /usr/local/msp430/bin/../lib/gcc/msp430/4.7.0/../../../../msp430/lib/mmpy-16/libc.a(strncmp.o)
 .text          0x00000000        0x0 /usr/local/msp430/bin/../lib/gcc/msp430/4.7.0/../../../../msp430/lib/mmpy-16/libc.a(memcmp.o)
 .data          0x00000000        0x0 /usr/local/msp430/bin/../lib/gcc/msp430/4.7.0/../../../../msp430/lib/mmpy-16/libc.a(memcmp.o)
 .bss           0x00000000        0x0 /usr/local/msp430/bin/../lib/gcc/msp430/4.7.0/../../../../msp430/lib/mmpy-16/libc.a(memcmp.o)
 .text          0x00000000        0x0 /usr/local/msp430/bin/../lib/gcc/msp430/4.7.0/../../../../msp430/lib/mmpy-16/libc.a(memcpy.o)
 .data          0x00000000        0x0 /usr/local/msp430/bin/../lib/gcc/msp430/4.7.0/../../../../msp430/lib/mmpy-16/libc.a(memcpy.o)
 .bss           0x00000000        0x0 /usr/local/msp430/bin/../lib/gcc/msp430/4.7.0/../../../../msp430/lib/mmpy-16/libc.a(memcpy.o)
 .text          0x00000000        0x0 /usr/local/msp430/bin/../lib/gcc/msp430/4.7.0/../../../../msp430/lib/mmpy-16/libc.a(memset.o)
 .data          0x00000000        0x0 /usr/local/msp430/bin/../lib/gcc/msp430/4.7.0/../../../../msp430/lib/mmpy-16/libc.a(memset.o)
 .bss           0x00000000        0x0 /usr/local/msp430/bin/../lib/gcc/msp430/4.7.0/../../../../msp430/lib/mmpy-16/libc.a(memset.o)
 .text          0x00000000        0x0 /usr/local/msp430/bin/../lib/gcc/msp430/4.7.0/mmpy-16/libgcc.a(_udivmod64.o)
 .data          0x00000000        0x0 /usr/local/msp430/bin/../lib/gcc/msp430/4.7.0/mmpy-16/libgcc.a(_udivmod64.o)
 .bss           0x00000000        0x0 /usr/local/msp430/bin/../lib/gcc/msp430/4.7.0/mmpy-16/libgcc.a(_udivmod64.o)
 .text          0x00000000        0x0 /usr/local/msp430/bin/../lib/gcc/msp430/4.7.0/mmpy-16/libcrt0.a(_reset_vector__.o)
 .data          0x00000000        0x0 /usr/local/msp430/bin/../lib/gcc/msp430/4.7.0/mmpy-16/libcrt0.a(_reset_vector__.o)
 .bss           0x00000000        0x0 /usr/local/msp430/bin/../lib/gcc/msp430/4.7.0/mmpy-16/libcrt0.a(_reset_vector__.o)
 .text          0x00000000        0x0 /usr/local/msp430/bin/../lib/gcc/msp430/4.7.0/mmpy-16/libcrt0.a(__watchdog_support.o)
 .data          0x00000000        0x0 /usr/local/msp430/bin/../lib/gcc/msp430/4.7.0/mmpy-16/libcrt0.a(__watchdog_support.o)
 .bss           0x00000000        0x0 /usr/local/msp430/bin/../lib/gcc/msp430/4.7.0/mmpy-16/libcrt0.a(__watchdog_support.o)
 .text          0x00000000        0x0 /usr/local/msp430/bin/../lib/gcc/msp430/4.7.0/mmpy-16/libcrt0.a(__init_stack.o)
 .data          0x00000000        0x0 /usr/local/msp430/bin/../lib/gcc/msp430/4.7.0/mmpy-16/libcrt0.a(__init_stack.o)
 .bss           0x00000000        0x0 /usr/local/msp430/bin/../lib/gcc/msp430/4.7.0/mmpy-16/libcrt0.a(__init_stack.o)
 .text          0x00000000        0x0 /usr/local/msp430/bin/../lib/gcc/msp430/4.7.0/mmpy-16/libcrt0.a(__low_level_init.o)
 .data          0x00000000        0x0 /usr/local/msp430/bin/../lib/gcc/msp430/4.7.0/mmpy-16/libcrt0.a(__low_level_init.o)
 .bss           0x00000000        0x0 /usr/local/msp430/bin/../lib/gcc/msp430/4.7.0/mmpy-16/libcrt0.a(__low_level_init.o)
 .text          0x00000000        0x0 /usr/local/msp430/bin/../lib/gcc/msp430/4.7.0/mmpy-16/libcrt0.a(_copy_data.o)
 .data          0x00000000        0x0 /usr/local/msp430/bin/../lib/gcc/msp430/4.7.0/mmpy-16/libcrt0.a(_copy_data.o)
 .bss           0x00000000        0x0 /usr/local/msp430/bin/../lib/gcc/msp430/4.7.0/mmpy-16/libcrt0.a(_copy_data.o)
 .text          0x00000000        0x0 /usr/local/msp430/bin/../lib/gcc/msp430/4.7.0/mmpy-16/libcrt0.a(_clear_bss.o)
 .data          0x00000000        0x0 /usr/local/msp430/bin/../lib/gcc/msp430/4.7.0/mmpy-16/libcrt0.a(_clear_bss.o)
 .bss           0x00000000        0x0 /usr/local/msp430/bin/../lib/gcc/msp430/4.7.0/mmpy-16/libcrt0.a(_clear_bss.o)
 .text          0x00000000        0x0 /usr/local/msp430/bin/../lib/gcc/msp430/4.7.0/mmpy-16/libcrt0.a(__stop_progExec__.o)
 .data          0x00000000        0x0 /usr/local/msp430/bin/../lib/gcc/msp430/4.7.0/mmpy-16/libcrt0.a(__stop_progExec__.o)
 .bss           0x00000000        0x0 /usr/local/msp430/bin/../lib/gcc/msp430/4.7.0/mmpy-16/libcrt0.a(__stop_progExec__.o)
 .text          0x00000000        0x0 /usr/local/msp430/bin/../lib/gcc/msp430/4.7.0/mmpy-16/libcrt0.a(_endless_loop__.o)
 .data          0x00000000        0x0 /usr/local/msp430/bin/../lib/gcc/msp430/4.7.0/mmpy-16/libcrt0.a(_endless_loop__.o)
 .bss           0x00000000        0x0 /usr/local/msp430/bin/../lib/gcc/msp430/4.7.0/mmpy-16/libcrt0.a(_endless_loop__.o)
 .text          0x00000000        0x0 /usr/local/msp430/bin/../lib/gcc/msp430/4.7.0/mmpy-16/libcrt0.a(_unexpected_.o)
 .data          0x00000000        0x0 /usr/local/msp430/bin/../lib/gcc/msp430/4.7.0/mmpy-16/libcrt0.a(_unexpected_.o)
 .bss           0x00000000        0x0 /usr/local/msp430/bin/../lib/gcc/msp430/4.7.0/mmpy-16/libcrt0.a(_unexpected_.o)

Memory Configuration

Name             Origin             Length             Attributes
sfr              0x00000000         0x00000010
peripheral_8bit  0x00000010         0x000000f0
peripheral_16bit 0x00000100         0x00000100
ram_mirror       0x00000200         0x00000800         xw
infomem          0x00001000         0x00000100
infob            0x00001000         0x00000080
infoa            0x00001080         0x00000080
ram              0x00001100         0x00002800         xw
rom              0x00004000         0x0000bfe0         xr
vectors          0x0000ffe0         0x00000020
bsl              0x00000000         0x00000000
infoc            0x00000000         0x00000000
infod            0x00000000         0x00000000
ram2             0x00000000         0x00000000         xw
usbram           0x00000000         0x00000000         xw
far_rom          0x00000000         0x00000000
*default*        0x00000000         0xffffffff

Linker script and memory map

LOAD /usr/local/msp430/bin/../lib/gcc/msp430/4.7.0/mmpy-16/crt0ivtbl16.o
LOAD sky-collect.co
LOAD obj_sky/contiki-sky-main.o
LOAD contiki-sky.a
LOAD /usr/local/msp430/bin/../lib/gcc/msp430/4.7.0/mmpy-16/libgcc.a
LOAD /usr/local/msp430/bin/../lib/gcc/msp430/4.7.0/../../../../msp430/lib/mmpy-16/libc.a
LOAD /usr/local/msp430/bin/../lib/gcc/msp430/4.7.0/mmpy-16/libgcc.a
LOAD /usr/local/msp430/bin/../lib/gcc/msp430/4.7.0/mmpy-16/libcrt0.a
                0x00000080                PROVIDE (__info_segment_size, 0x80)
                0x00001000                PROVIDE (__infob, 0x1000)
                0x00001080                PROVIDE (__infoa, 0x1080)
                0x00000000                __IE1 = 0x0
                0x00000002                __IFG1 = 0x2
                0x00000004                __ME1 = 0x4
                0x00000001                __IE2 = 0x1
                0x00000003                __IFG2 = 0x3
                0x00000005                __ME2 = 0x5
                0x00000120                __WDTCTL = 0x120
                0x00000130                __MPY = 0x130
                0x00000132                __MPYS = 0x132
                0x00000134                __MAC = 0x134
                0x00000136                __MACS = 0x136
                0x00000138                __OP2 = 0x138
                0x0000013a                __RESLO = 0x13a
                0x0000013c                __RESHI = 0x13c
                0x0000013e                __SUMEXT = 0x13e
                0x00000020                __P1IN = 0x20
                0x00000021                __P1OUT = 0x21
                0x00000022                __P1DIR = 0x22
                0x00000023                __P1IFG = 0x23
                0x00000024                __P1IES = 0x24
                0x00000025                __P1IE = 0x25
                0x00000026                __P1SEL = 0x26
                0x00000028                __P2IN = 0x28
                0x00000029                __P2OUT = 0x29
                0x0000002a                __P2DIR = 0x2a
                0x0000002b                __P2IFG = 0x2b
                0x0000002c                __P2IES = 0x2c
                0x0000002d                __P2IE = 0x2d
                0x0000002e                __P2SEL = 0x2e
                0x00000018                __P3IN = 0x18
                0x00000019                __P3OUT = 0x19
                0x0000001a                __P3DIR = 0x1a
                0x0000001b                __P3SEL = 0x1b
                0x0000001c                __P4IN = 0x1c
                0x0000001d                __P4OUT = 0x1d
                0x0000001e                __P4DIR = 0x1e
                0x0000001f                __P4SEL = 0x1f
                0x00000030                __P5IN = 0x30
                0x00000031                __P5OUT = 0x31
                0x00000032                __P5DIR = 0x32
                0x00000033                __P5SEL = 0x33
                0x00000034                __P6IN = 0x34
                0x00000035                __P6OUT = 0x35
                0x00000036                __P6DIR = 0x36
                0x00000037                __P6SEL = 0x37
                0x00000070                __U0CTL = 0x70
                0x00000071                __U0TCTL = 0x71
                0x00000072                __U0RCTL = 0x72
                0x00000073                __U0MCTL = 0x73
                0x00000074                __U0BR0 = 0x74
                0x00000075                __U0BR1 = 0x75
                0x00000076                __U0RXBUF = 0x76
                0x00000077                __U0TXBUF = 0x77
                0x00000078                __U1CTL = 0x78
                0x00000079                __U1TCTL = 0x79
                0x0000007a                __U1RCTL = 0x7a
                0x0000007b                __U1MCTL = 0x7b
                0x0000007c                __U1BR0 = 0x7c
                0x0000007d                __U1BR1 = 0x7d
                0x0000007e                __U1RXBUF = 0x7e
                0x0000007f                __U1TXBUF = 0x7f
                0x00000050                __I2CIE = 0x50
                0x00000051                __I2CIFG = 0x51
                0x00000052                __I2CNDAT = 0x52
                0x00000071                __I2CTCTL = 0x71
                0x00000072                __I2CDCTL = 0x72
                0x00000073                __I2CPSC = 0x73
                0x00000074                __I2CSCLH = 0x74
                0x00000075                __I2CSCLL = 0x75
                0x00000076                __I2CDRB = 0x76
                0x00000076                __I2CDRW = 0x76
                0x00000118                __I2COA = 0x118
                0x0000011a                __I2CSA = 0x11a
                0x0000011c                __I2CIV = 0x11c
                0x0000012e                __TAIV = 0x12e
                0x00000160                __TACTL = 0x160
                0x00000162                __TACCTL0 = 0x162
                0x00000164                __TACCTL1 = 0x164
                0x00000166                __TACCTL2 = 0x166
                0x00000170                __TAR = 0x170
                0x00000172                __TACCR0 = 0x172
                0x00000174                __TACCR1 = 0x174
                0x00000176                __TACCR2 = 0x176
                0x0000011e                __TBIV = 0x11e
                0x00000180                __TBCTL = 0x180
                0x00000182                __TBCCTL0 = 0x182
                0x00000184                __TBCCTL1 = 0x184
                0x00000186                __TBCCTL2 = 0x186
                0x00000188                __TBCCTL3 = 0x188
                0x0000018a                __TBCCTL4 = 0x18a
                0x0000018c                __TBCCTL5 = 0x18c
                0x0000018e                __TBCCTL6 = 0x18e
                0x00000190                __TBR = 0x190
                0x00000192                __TBCCR0 = 0x192
                0x00000194                __TBCCR1 = 0x194
                0x00000196                __TBCCR2 = 0x196
                0x00000198                __TBCCR3 = 0x198
                0x0000019a                __TBCCR4 = 0x19a
                0x0000019c                __TBCCR5 = 0x19c
                0x0000019e                __TBCCR6 = 0x19e
                0x00000056                __DCOCTL = 0x56
                0x00000057                __BCSCTL1 = 0x57
                0x00000058                __BCSCTL2 = 0x58
                0x00000055                __SVSCTL = 0x55
                0x00000128                __FCTL1 = 0x128
                0x0000012a                __FCTL2 = 0x12a
                0x0000012c                __FCTL3 = 0x12c
                0x00000059                __CACTL1 = 0x59
                0x0000005a                __CACTL2 = 0x5a
                0x0000005b                __CAPD = 0x5b
                0x000001a0                __ADC12CTL0 = 0x1a0
                0x000001a2                __ADC12CTL1 = 0x1a2
                0x000001a4                __ADC12IFG = 0x1a4
                0x000001a6                __ADC12IE = 0x1a6
                0x000001a8                __ADC12IV = 0x1a8
                0x00000140                __ADC12MEM0 = 0x140
                0x00000142                __ADC12MEM1 = 0x142
                0x00000144                __ADC12MEM2 = 0x144
                0x00000146                __ADC12MEM3 = 0x146
                0x00000148                __ADC12MEM4 = 0x148
                0x0000014a                __ADC12MEM5 = 0x14a
                0x0000014c                __ADC12MEM6 = 0x14c
                0x0000014e                __ADC12MEM7 = 0x14e
                0x00000150                __ADC12MEM8 = 0x150
                0x00000152                __ADC12MEM9 = 0x152
                0x00000154                __ADC12MEM10 = 0x154
                0x00000156                __ADC12MEM11 = 0x156
                0x00000158                __ADC12MEM12 = 0x158
                0x0000015a                __ADC12MEM13 = 0x15a
                0x0000015c                __ADC12MEM14 = 0x15c
                0x0000015e                __ADC12MEM15 = 0x15e
                0x00000080                __ADC12MCTL0 = 0x80
                0x00000081                __ADC12MCTL1 = 0x81
                0x00000082                __ADC12MCTL2 = 0x82
                0x00000083                __ADC12MCTL3 = 0x83
                0x00000084                __ADC12MCTL4 = 0x84
                0x00000085                __ADC12MCTL5 = 0x85
                0x00000086                __ADC12MCTL6 = 0x86
                0x00000087                __ADC12MCTL7 = 0x87
                0x00000088                __ADC12MCTL8 = 0x88
                0x00000089                __ADC12MCTL9 = 0x89
                0x0000008a                __ADC12MCTL10 = 0x8a
                0x0000008b                __ADC12MCTL11 = 0x8b
                0x0000008c                __ADC12MCTL12 = 0x8c
                0x0000008d                __ADC12MCTL13 = 0x8d
                0x0000008e                __ADC12MCTL14 = 0x8e
                0x0000008f                __ADC12MCTL15 = 0x8f
                0x000001c0                __DAC12_0CTL = 0x1c0
                0x000001c2                __DAC12_1CTL = 0x1c2
                0x000001c8                __DAC12_0DAT = 0x1c8
                0x000001ca                __DAC12_1DAT = 0x1ca
                0x00000122                __DMACTL0 = 0x122
                0x00000124                __DMACTL1 = 0x124
                0x000001e0                __DMA0CTL = 0x1e0
                0x000001e8                __DMA1CTL = 0x1e8
                0x000001f0                __DMA2CTL = 0x1f0
                0x000001e2                __DMA0SA = 0x1e2
                0x000001e4                __DMA0DA = 0x1e4
                0x000001e6                __DMA0SZ = 0x1e6
                0x000001ea                __DMA1SA = 0x1ea
                0x000001ec                __DMA1DA = 0x1ec
                0x000001ee                __DMA1SZ = 0x1ee
                0x000001f2                __DMA2SA = 0x1f2
                0x000001f4                __DMA2DA = 0x1f4
                0x000001f6                __DMA2SZ = 0x1f6

.hash
 *(.hash)

.dynsym
 *(.dynsym)

.dynstr
 *(.dynstr)

.gnu.version
 *(.gnu.version)

.gnu.version_d
 *(.gnu.version_d)

.gnu.version_r
 *(.gnu.version_r)

.rel.init
 *(.rel.init)

.rela.init
 *(.rela.init)

.rel.fini
 *(.rel.fini)

.rela.fini
 *(.rela.fini)

.rel.text
 *(.rel.text .rel.text.* .rel.gnu.linkonce.t.*)

.rela.text
 *(.rela.text .rela.text.* .rela.gnu.linkonce.t.*)

.rel.rodata
 *(.rel.rodata .rel.rodata.* .rel.gnu.linkonce.r.*)

.rela.rodata
 *(.rela.rodata .rela.rodata.* .rela.gnu.linkonce.r.*)

.rel.data
 *(.rel.data .rel.data.* .rel.gnu.linkonce.d.*)

.rela.data
 *(.rela.data .rela.data.* .rela.gnu.linkonce.d.*)

.rel.bss
 *(.rel.bss .rel.bss.* .rel.gnu.linkonce.b.*)

.rela.bss
 *(.rela.bss .rela.bss.* .rela.gnu.linkonce.b.*)

.rel.ctors
 *(.rel.ctors)

.rela.ctors
 *(.rela.ctors)

.rel.dtors
 *(.rel.dtors)

.rela.dtors
 *(.rela.dtors)

.rel.got
 *(.rel.got)

.rela.got
 *(.rela.got)

.rel.plt
 *(.rel.plt)

.rela.plt
 *(.rela.plt)

.text           0x00004000     0x8ab0
                0x00004000                . = ALIGN (0x2)
 *(.init .init.*)
 *(.init0)
 .init0         0x00004000        0x0 /usr/local/msp430/bin/../lib/gcc/msp430/4.7.0/mmpy-16/libcrt0.a(_reset_vector__.o)
                0x00004000                _reset_vector__
 *(.init1)
 .init1         0x00004000        0xc /usr/local/msp430/bin/../lib/gcc/msp430/4.7.0/mmpy-16/libcrt0.a(__watchdog_support.o)
                0x00004000                __watchdog_support
 *(.init2)
 .init2         0x0000400c        0x4 /usr/local/msp430/bin/../lib/gcc/msp430/4.7.0/mmpy-16/libcrt0.a(__init_stack.o)
                0x0000400c                __init_stack
 *(.init3)
 .init3         0x00004010        0x0 /usr/local/msp430/bin/../lib/gcc/msp430/4.7.0/mmpy-16/libcrt0.a(__low_level_init.o)
                0x00004010                __low_level_init
 *(.init4)
 .init4         0x00004010       0x18 /usr/local/msp430/bin/../lib/gcc/msp430/4.7.0/mmpy-16/libcrt0.a(_copy_data.o)
                0x00004010                __do_copy_data
 .init4         0x00004028       0x16 /usr/local/msp430/bin/../lib/gcc/msp430/4.7.0/mmpy-16/libcrt0.a(_clear_bss.o)
                0x00004028                __do_clear_bss
 *(.init5)
 *(.init6)
 *(.init7)
 *(.init8)
 *(.init9)
 .init9         0x0000403e      0x386 obj_sky/contiki-sky-main.o
                0x0000403e                main
 *(.fini9)
 .fini9         0x000043c4        0x0 /usr/local/msp430/bin/../lib/gcc/msp430/4.7.0/mmpy-16/libcrt0.a(__stop_progExec__.o)
                0x000043c4                __stop_progExec__
 *(.fini8)
 *(.fini7)
 *(.fini6)
 *(.fini5)
 *(.fini4)
 *(.fini3)
 *(.fini2)
 *(.fini1)
 *(.fini0)
 .fini0         0x000043c4        0x6 /usr/local/msp430/bin/../lib/gcc/msp430/4.7.0/mmpy-16/libcrt0.a(_endless_loop__.o)
                0x000043c4                _endless_loop__
 *(.fini .fini.*)
                0x000043ca                . = ALIGN (0x2)
                0x000043ca                __ctors_start = .
 *(.ctors)
                0x000043ca                __ctors_end = .
                0x000043ca                __dtors_start = .
 *(.dtors)
                0x000043ca                __dtors_end = .
                0x000043ca                . = ALIGN (0x2)
 *(.text .text.* .gnu.linkonce.t.*)
 .text          0x000043ca        0x4 /usr/local/msp430/bin/../lib/gcc/msp430/4.7.0/mmpy-16/crt0ivtbl16.o
                0x000043ca                __isr_14
                0x000043ca                __isr_11
                0x000043ca                __isr_2
                0x000043ca                __isr_7
                0x000043ca                __isr_0
                0x000043ca                __isr_8
                0x000043ca                __isr_3
                0x000043ca                __isr_12
                0x000043ca                __isr_13
                0x000043ca                __isr_9
 .text.process_thread_depth_blink_process
                0x000043ce       0xe4 sky-collect.co
 .text.recv     0x000044b2       0xfe sky-collect.co
 .text.process_thread_test_collect_process
                0x000045b0      0x290 sky-collect.co
 .text.set_gateway
                0x00004840       0x5a obj_sky/contiki-sky-main.o
 .text.start_network_layer
                0x0000489a       0x3c obj_sky/contiki-sky-main.o
 .text.init_platform
                0x000048d6        0xc contiki-sky.a(contiki-sky-pla)
                0x000048d6                init_platform
 .text.status   0x000048e2       0x14 contiki-sky.a(sht11-sensor.o)
 .text.value    0x000048f6       0x30 contiki-sky.a(sht11-sensor.o)
 .text.configure
                0x00004926       0x3e contiki-sky.a(sht11-sensor.o)
 .text.value    0x00004964       0x1a contiki-sky.a(light-sensor.o)
 .text.status   0x0000497e        0xc contiki-sky.a(light-sensor.o)
 .text.configure
                0x0000498a       0x10 contiki-sky.a(light-sensor.o)
 .text.status   0x0000499a       0x18 contiki-sky.a(button-sensor.o)
 .text.value    0x000049b2       0x20 contiki-sky.a(button-sensor.o)
 .text.configure
                0x000049d2       0x4c contiki-sky.a(button-sensor.o)
 .text.irq_p2   0x00004a1e       0x88 contiki-sky.a(button-sensor.o)
                0x00004a1e                irq_p2
                0x00004a1e                __isr_1
 .text.owreadb  0x00004aa6       0x50 contiki-sky.a(ds2411.o)
 .text.ds2411_init
                0x00004af6      0x120 contiki-sky.a(ds2411.o)
                0x00004af6                ds2411_init
 .text.wait_ready
                0x00004c16       0x4a contiki-sky.a(xmem.o)
 .text.xmem_init
                0x00004c60       0x3c contiki-sky.a(xmem.o)
                0x00004c60                xmem_init
 .text.xmem_pread
                0x00004c9c       0xe0 contiki-sky.a(xmem.o)
                0x00004c9c                xmem_pread
 .text.node_id_restore
                0x00004d7c       0x38 contiki-sky.a(node-id.o)
                0x00004d7c                node_id_restore
 .text.process_thread_sensors_process
                0x00004db4       0xc2 contiki-sky.a(sensors.o)
 .text.sensors_changed
                0x00004e76       0x2a contiki-sky.a(sensors.o)
                0x00004e76                sensors_changed
 .text.get_object
                0x00004ea0        0x4 contiki-sky.a(cc2420.o)
 .text.set_object
                0x00004ea4        0x4 contiki-sky.a(cc2420.o)
 .text.strobe   0x00004ea8       0x1c contiki-sky.a(cc2420.o)
 .text.getreg   0x00004ec4       0x4c contiki-sky.a(cc2420.o)
 .text.setreg   0x00004f10       0x4c contiki-sky.a(cc2420.o)
 .text.write_ram
                0x00004f5c       0x7c contiki-sky.a(cc2420.o)
 .text.write_fifo_buf
                0x00004fd8       0x3c contiki-sky.a(cc2420.o)
 .text.get_status
                0x00005014       0x20 contiki-sky.a(cc2420.o)
 .text.set_txpower
                0x00005034       0x24 contiki-sky.a(cc2420.o)
 .text.cc2420_receiving_packet
                0x00005058        0xc contiki-sky.a(cc2420.o)
 .text.pending_packet
                0x00005064        0x8 contiki-sky.a(cc2420.o)
 .text.on       0x0000506c       0x1e contiki-sky.a(cc2420.o)
 .text.wait_for_transmission
                0x0000508a       0x22 contiki-sky.a(cc2420.o)
 .text.wait_for_status
                0x000050ac       0x28 contiki-sky.a(cc2420.o)
 .text.getrxdata
                0x000050d4       0x50 contiki-sky.a(cc2420.o)
 .text.flushrx  0x00005124       0x1a contiki-sky.a(cc2420.o)
 .text.off      0x0000513e       0x56 contiki-sky.a(cc2420.o)
 .text.RELEASE_LOCK
                0x00005194       0x28 contiki-sky.a(cc2420.o)
 .text.set_key  0x000051bc       0x18 contiki-sky.a(cc2420.o)
 .text.cc2420_prepare
                0x000051d4       0x3c contiki-sky.a(cc2420.o)
 .text.cc2420_on
                0x00005210       0x22 contiki-sky.a(cc2420.o)
                0x00005210                cc2420_on
 .text.cc2420_off
                0x00005232       0x30 contiki-sky.a(cc2420.o)
                0x00005232                cc2420_off
 .text.cc2420_cca
                0x00005262       0x68 contiki-sky.a(cc2420.o)
 .text.cc2420_read
                0x000052ca       0xac contiki-sky.a(cc2420.o)
 .text.process_thread_cc2420_process
                0x00005376       0x54 contiki-sky.a(cc2420.o)
 .text.encrypt  0x000053ca       0x88 contiki-sky.a(cc2420.o)
 .text.cc2420_set_channel
                0x00005452       0x3c contiki-sky.a(cc2420.o)
                0x00005452                cc2420_set_channel
 .text.cc2420_set_pan_addr
                0x0000548e       0x4c contiki-sky.a(cc2420.o)
                0x0000548e                cc2420_set_pan_addr
 .text.cc2420_interrupt
                0x000054da       0x16 contiki-sky.a(cc2420.o)
                0x000054da                cc2420_interrupt
 .text.cc2420_set_txpower
                0x000054f0        0xe contiki-sky.a(cc2420.o)
                0x000054f0                cc2420_set_txpower
 .text.cc2420_get_txpower
                0x000054fe       0x1e contiki-sky.a(cc2420.o)
                0x000054fe                cc2420_get_txpower
 .text.cc2420_transmit
                0x0000551c      0x12c contiki-sky.a(cc2420.o)
 .text.cc2420_send
                0x00005648       0x12 contiki-sky.a(cc2420.o)
 .text.cc2420_rssi
                0x0000565a       0x4c contiki-sky.a(cc2420.o)
                0x0000565a                cc2420_rssi
 .text.get_value
                0x000056a6       0xa8 contiki-sky.a(cc2420.o)
 .text.cc2420_set_cca_threshold
                0x0000574e       0x16 contiki-sky.a(cc2420.o)
                0x0000574e                cc2420_set_cca_threshold
 .text.set_value
                0x00005764       0x86 contiki-sky.a(cc2420.o)
 .text.cc2420_init
                0x000057ea       0xd8 contiki-sky.a(cc2420.o)
                0x000057ea                cc2420_init
 .text.cc2420_port1_interrupt
                0x000058c2       0x62 contiki-sky.a(cc2420-arch.o)
                0x000058c2                __isr_4
                0x000058c2                cc2420_port1_interrupt
 .text.cc2420_arch_init
                0x00005924       0x1a contiki-sky.a(cc2420-arch.o)
                0x00005924                cc2420_arch_init
 .text.sky_sensors_status
                0x0000593e       0x3c contiki-sky.a(sky-sensors.o)
                0x0000593e                sky_sensors_status
 .text.sky_sensors_configure
                0x0000597a       0xee contiki-sky.a(sky-sensors.o)
                0x0000597a                sky_sensors_configure
 .text.handle_rxdma_timer
                0x00005a68       0x3a contiki-sky.a(uart1.o)
 .text.uart1_active
                0x00005aa2       0x18 contiki-sky.a(uart1.o)
                0x00005aa2                uart1_active
 .text.uart1_set_input
                0x00005aba       0x20 contiki-sky.a(uart1.o)
                0x00005aba                uart1_set_input
 .text.uart1_writeb
                0x00005ada       0x18 contiki-sky.a(uart1.o)
                0x00005ada                uart1_writeb
 .text.uart1_init
                0x00005af2       0xf4 contiki-sky.a(uart1.o)
                0x00005af2                uart1_init
 .text.slip_arch_writeb
                0x00005be6        0x6 contiki-sky.a(slip_uart1.o)
                0x00005be6                slip_arch_writeb
 .text.putchar  0x00005bec       0x3c contiki-sky.a(slip_uart1.o)
                0x00005bec                putchar
 .text.slip_arch_init
                0x00005c28        0xa contiki-sky.a(slip_uart1.o)
                0x00005c28                slip_arch_init
 .text.slip_set_input_callback
                0x00005c32        0x6 contiki-sky.a(slip.o)
                0x00005c32                slip_set_input_callback
 .text.slip_send
                0x00005c38       0x5e contiki-sky.a(slip.o)
                0x00005c38                slip_send
 .text.slip_write
                0x00005c96       0x5a contiki-sky.a(slip.o)
                0x00005c96                slip_write
 .text.process_thread_slip_process
                0x00005cf0      0x1fc contiki-sky.a(slip.o)
 .text.slip_input_byte
                0x00005eec       0xbc contiki-sky.a(slip.o)
                0x00005eec                slip_input_byte
 .text.msp430_init_dco
                0x00005fa8       0x82 contiki-sky.a(msp430.o)
                0x00005fa8                msp430_init_dco
 .text.msp430_add_lpm_req
                0x0000602a        0xc contiki-sky.a(msp430.o)
                0x0000602a                msp430_add_lpm_req
 .text.msp430_cpu_init
                0x00006036       0x2a contiki-sky.a(msp430.o)
                0x00006036                msp430_cpu_init
 .text.splhigh_
                0x00006060        0x8 contiki-sky.a(msp430.o)
                0x00006060                splhigh_
 .text.msp430_sync_dco
                0x00006068       0x6c contiki-sky.a(msp430.o)
                0x00006068                msp430_sync_dco
 .text.timera1  0x000060d4      0x11e contiki-sky.a(clock.o)
                0x000060d4                __isr_5
                0x000060d4                timera1
 .text.clock_time
                0x000061f2       0x1a contiki-sky.a(clock.o)
                0x000061f2                clock_time
 .text.clock_init
                0x0000620c       0x28 contiki-sky.a(clock.o)
                0x0000620c                clock_init
 .text.clock_delay
                0x00006234        0xc contiki-sky.a(clock.o)
                0x00006234                clock_delay
 .text.clock_wait
                0x00006240       0x30 contiki-sky.a(clock.o)
                0x00006240                clock_wait
 .text.show_leds
                0x00006270       0xf0 contiki-sky.a(leds.o)
 .text.leds_init
                0x00006360        0xa contiki-sky.a(leds.o)
                0x00006360                leds_init
 .text.leds_on  0x0000636a        0xa contiki-sky.a(leds.o)
                0x0000636a                leds_on
 .text.leds_off
                0x00006374        0xe contiki-sky.a(leds.o)
                0x00006374                leds_off
 .text.leds_arch_init
                0x00006382        0xe contiki-sky.a(leds-arch.o)
                0x00006382                leds_arch_init
 .text.leds_arch_set
                0x00006390       0x38 contiki-sky.a(leds-arch.o)
                0x00006390                leds_arch_set
 .text.watchdog_interrupt
                0x000063c8        0x6 contiki-sky.a(watchdog.o)
                0x000063c8                __isr_10
                0x000063c8                watchdog_interrupt
 .text.watchdog_start
                0x000063ce       0x14 contiki-sky.a(watchdog.o)
                0x000063ce                watchdog_start
 .text.watchdog_periodic
                0x000063e2       0x12 contiki-sky.a(watchdog.o)
                0x000063e2                watchdog_periodic
 .text.watchdog_stop
                0x000063f4       0x16 contiki-sky.a(watchdog.o)
                0x000063f4                watchdog_stop
 .text.watchdog_init
                0x0000640a       0x12 contiki-sky.a(watchdog.o)
                0x0000640a                watchdog_init
 .text.rtimer_arch_init
                0x0000641c        0xe contiki-sky.a(rtimer-arch.o)
                0x0000641c                rtimer_arch_init
 .text.rtimer_arch_now
                0x0000642a        0xe contiki-sky.a(rtimer-arch.o)
                0x0000642a                rtimer_arch_now
 .text.timera0  0x00006438       0x70 contiki-sky.a(rtimer-arch.o)
                0x00006438                __isr_6
                0x00006438                timera0
 .text.rtimer_arch_schedule
                0x000064a8        0x6 contiki-sky.a(rtimer-arch.o)
                0x000064a8                rtimer_arch_schedule
 .text.autostart_start
                0x000064ae       0x16 contiki-sky.a(autostart.o)
                0x000064ae                autostart_start
 .text.process_thread_ctimer_process
                0x000064c4       0xa8 contiki-sky.a(ctimer.o)
 .text.ctimer_init
                0x0000656c       0x18 contiki-sky.a(ctimer.o)
                0x0000656c                ctimer_init
 .text.ctimer_set
                0x00006584       0x50 contiki-sky.a(ctimer.o)
                0x00006584                ctimer_set
 .text.ctimer_reset
                0x000065d4       0x30 contiki-sky.a(ctimer.o)
                0x000065d4                ctimer_reset
 .text.ctimer_stop
                0x00006604       0x28 contiki-sky.a(ctimer.o)
                0x00006604                ctimer_stop
 .text.energest_init
                0x0000662c       0x26 contiki-sky.a(energest.o)
                0x0000662c                energest_init
 .text.energest_type_time
                0x00006652       0x48 contiki-sky.a(energest.o)
                0x00006652                energest_type_time
 .text.energest_type_set
                0x0000669a        0xe contiki-sky.a(energest.o)
                0x0000669a                energest_type_set
 .text.energest_flush
                0x000066a8       0x48 contiki-sky.a(energest.o)
                0x000066a8                energest_flush
 .text.update_time
                0x000066f0       0x78 contiki-sky.a(etimer.o)
 .text.etimer_request_poll
                0x00006768        0xa contiki-sky.a(etimer.o)
                0x00006768                etimer_request_poll
 .text.process_thread_etimer_process
                0x00006772       0xcc contiki-sky.a(etimer.o)
 .text.add_timer
                0x0000683e       0x40 contiki-sky.a(etimer.o)
 .text.etimer_set
                0x0000687e       0x12 contiki-sky.a(etimer.o)
                0x0000687e                etimer_set
 .text.etimer_reset
                0x00006890       0x12 contiki-sky.a(etimer.o)
                0x00006890                etimer_reset
 .text.etimer_restart
                0x000068a2       0x12 contiki-sky.a(etimer.o)
                0x000068a2                etimer_restart
 .text.etimer_expired
                0x000068b4        0xe contiki-sky.a(etimer.o)
                0x000068b4                etimer_expired
 .text.etimer_pending
                0x000068c2        0xc contiki-sky.a(etimer.o)
                0x000068c2                etimer_pending
 .text.etimer_next_expiration_time
                0x000068ce       0x16 contiki-sky.a(etimer.o)
                0x000068ce                etimer_next_expiration_time
 .text.etimer_stop
                0x000068e4       0x3e contiki-sky.a(etimer.o)
                0x000068e4                etimer_stop
 .text.call_process
                0x00006922       0x46 contiki-sky.a(process.o)
 .text.exit_process
                0x00006968       0x96 contiki-sky.a(process.o)
 .text.do_poll  0x000069fe       0x30 contiki-sky.a(process.o)
 .text.process_alloc_event
                0x00006a2e        0xe contiki-sky.a(process.o)
                0x00006a2e                process_alloc_event
 .text.process_init
                0x00006a3c       0x1c contiki-sky.a(process.o)
                0x00006a3c                process_init
 .text.process_run
                0x00006a58       0xa2 contiki-sky.a(process.o)
                0x00006a58                process_run
 .text.process_nevents
                0x00006afa        0xe contiki-sky.a(process.o)
                0x00006afa                process_nevents
 .text.process_post
                0x00006b08       0x54 contiki-sky.a(process.o)
                0x00006b08                process_post
 .text.process_post_synch
                0x00006b5c       0x12 contiki-sky.a(process.o)
                0x00006b5c                process_post_synch
 .text.process_start
                0x00006b6e       0x36 contiki-sky.a(process.o)
                0x00006b6e                process_start
 .text.process_poll
                0x00006ba4       0x18 contiki-sky.a(process.o)
                0x00006ba4                process_poll
 .text.rtimer_init
                0x00006bbc        0x6 contiki-sky.a(rtimer.o)
                0x00006bbc                rtimer_init
 .text.rtimer_set
                0x00006bc2       0x24 contiki-sky.a(rtimer.o)
                0x00006bc2                rtimer_set
 .text.rtimer_run_next
                0x00006be6       0x26 contiki-sky.a(rtimer.o)
                0x00006be6                rtimer_run_next
 .text.timer_set
                0x00006c0c       0x1c contiki-sky.a(timer.o)
                0x00006c0c                timer_set
 .text.timer_reset
                0x00006c28        0xe contiki-sky.a(timer.o)
                0x00006c28                timer_reset
 .text.timer_restart
                0x00006c36       0x14 contiki-sky.a(timer.o)
                0x00006c36                timer_restart
 .text.timer_expired
                0x00006c4a       0x2a contiki-sky.a(timer.o)
                0x00006c4a                timer_expired
 .text.list_init
                0x00006c74        0x6 contiki-sky.a(list.o)
                0x00006c74                list_init
 .text.list_head
                0x00006c7a        0x4 contiki-sky.a(list.o)
                0x00006c7a                list_head
 .text.list_tail
                0x00006c7e       0x12 contiki-sky.a(list.o)
                0x00006c7e                list_tail
 .text.list_chop
                0x00006c90       0x1a contiki-sky.a(list.o)
                0x00006c90                list_chop
 .text.list_remove
                0x00006caa       0x34 contiki-sky.a(list.o)
                0x00006caa                list_remove
 .text.list_push
                0x00006cde       0x1a contiki-sky.a(list.o)
                0x00006cde                list_push
 .text.list_add
                0x00006cf8       0x2a contiki-sky.a(list.o)
                0x00006cf8                list_add
 .text.list_length
                0x00006d22       0x10 contiki-sky.a(list.o)
                0x00006d22                list_length
 .text.list_item_next
                0x00006d32        0xc contiki-sky.a(list.o)
                0x00006d32                list_item_next
 .text.random_init
                0x00006d3e        0x6 contiki-sky.a(random.o)
                0x00006d3e                random_init
 .text.random_rand
                0x00006d44        0x6 contiki-sky.a(random.o)
                0x00006d44                random_rand
 .text.chksum   0x00006d4a       0x32 contiki-sky.a(uip.o)
 .text.upper_layer_chksum
                0x00006d7c       0x42 contiki-sky.a(uip.o)
 .text.uip_add32
                0x00006dbe       0x68 contiki-sky.a(uip.o)
                0x00006dbe                uip_add32
 .text.uip_add_rcv_nxt
                0x00006e26       0x2c contiki-sky.a(uip.o)
 .text.uip_chksum
                0x00006e52       0x18 contiki-sky.a(uip.o)
                0x00006e52                uip_chksum
 .text.uip_tcpchksum
                0x00006e6a        0xa contiki-sky.a(uip.o)
                0x00006e6a                uip_tcpchksum
 .text.uip_udpchksum
                0x00006e74        0xa contiki-sky.a(uip.o)
                0x00006e74                uip_udpchksum
 .text.uip_init
                0x00006e7e       0x50 contiki-sky.a(uip.o)
                0x00006e7e                uip_init
 .text.uip_unlisten
                0x00006ece       0x2a contiki-sky.a(uip.o)
                0x00006ece                uip_unlisten
 .text.uip_process
                0x00006ef8      0xc7e contiki-sky.a(uip.o)
                0x00006ef8                uip_process
 .text.uip_htons
                0x00007b76        0xc contiki-sky.a(uip.o)
                0x00007b76                uip_htons
 .text.uip_fw_output
                0x00007b82       0xf4 contiki-sky.a(uip-fw.o)
                0x00007b82                uip_fw_output
 .text.uip_fw_forward
                0x00007c76      0x15e contiki-sky.a(uip-fw.o)
                0x00007c76                uip_fw_forward
 .text.uip_fw_default
                0x00007dd4        0x6 contiki-sky.a(uip-fw.o)
                0x00007dd4                uip_fw_default
 .text.uip_fw_periodic
                0x00007dda       0x1c contiki-sky.a(uip-fw.o)
                0x00007dda                uip_fw_periodic
 .text.process_thread_uip_fw_process
                0x00007df6       0x3c contiki-sky.a(uip-fw-drv.o)
 .text.timedout
                0x00007e32       0x12 contiki-sky.a(uip-over-mesh.o)
 .text.recv_data
                0x00007e44       0x72 contiki-sky.a(uip-over-mesh.o)
 .text.new_route
                0x00007eb6       0x36 contiki-sky.a(uip-over-mesh.o)
 .text.uip_over_mesh_init
                0x00007eec       0x54 contiki-sky.a(uip-over-mesh.o)
                0x00007eec                uip_over_mesh_init
 .text.uip_over_mesh_send
                0x00007f40       0xe8 contiki-sky.a(uip-over-mesh.o)
                0x00007f40                uip_over_mesh_send
 .text.uip_over_mesh_set_gateway_netif
                0x00008028        0x6 contiki-sky.a(uip-over-mesh.o)
                0x00008028                uip_over_mesh_set_gateway_netif
 .text.uip_over_mesh_set_gateway
                0x0000802e        0xc contiki-sky.a(uip-over-mesh.o)
                0x0000802e                uip_over_mesh_set_gateway
 .text.gateway_announce_recv
                0x0000803a       0x10 contiki-sky.a(uip-over-mesh.o)
 .text.uip_over_mesh_make_announced_gateway
                0x0000804a       0x32 contiki-sky.a(uip-over-mesh.o)
                0x0000804a                uip_over_mesh_make_announced_gateway
 .text.uip_over_mesh_set_net
                0x0000807c       0x16 contiki-sky.a(uip-over-mesh.o)
                0x0000807c                uip_over_mesh_set_net
 .text.start_periodic_tcp_timer
                0x00008092       0x16 contiki-sky.a(tcpip.o)
 .text.tcpip_output
                0x000080a8       0x10 contiki-sky.a(tcpip.o)
                0x000080a8                tcpip_output
 .text.process_thread_tcpip_process
                0x000080b8      0x1ce contiki-sky.a(tcpip.o)
 .text.tcpip_set_outputfunc
                0x00008286        0x6 contiki-sky.a(tcpip.o)
                0x00008286                tcpip_set_outputfunc
 .text.tcpip_input
                0x0000828c       0x12 contiki-sky.a(tcpip.o)
                0x0000828c                tcpip_input
 .text.tcpip_uipcall
                0x0000829e       0x70 contiki-sky.a(tcpip.o)
                0x0000829e                tcpip_uipcall
 .text.bump_advertisement
                0x0000830e        0xa contiki-sky.a(collect.o)
 .text.send_packet
                0x00008318       0x3a contiki-sky.a(collect.o)
 .text.send_queued_packet
                0x00008352       0xc8 contiki-sky.a(collect.o)
 .text.update_rtmetric
                0x0000841a       0xf4 contiki-sky.a(collect.o)
 .text.send_next_packet
                0x0000850e       0x2c contiki-sky.a(collect.o)
 .text.send_ack
                0x0000853a       0x78 contiki-sky.a(collect.o)
 .text.received_announcement
                0x000085b2       0x9c contiki-sky.a(collect.o)
 .text.set_keepalive_timer
                0x0000864e       0x5e contiki-sky.a(collect.o)
 .text.timedout
                0x000086ac       0x38 contiki-sky.a(collect.o)
 .text.retransmit_callback
                0x000086e4       0xcc contiki-sky.a(collect.o)
 .text.retransmit_not_sent_callback
                0x000087b0        0xc contiki-sky.a(collect.o)
 .text.node_packet_sent
                0x000087bc       0x56 contiki-sky.a(collect.o)
 .text.add_packet_to_recent_packets.part.4
                0x00008812       0x46 contiki-sky.a(collect.o)
 .text.enqueue_dummy_packet
                0x00008858       0x88 contiki-sky.a(collect.o)
 .text.send_keepalive
                0x000088e0       0x32 contiki-sky.a(collect.o)
 .text.proactive_probing_callback
                0x00008912       0xe2 contiki-sky.a(collect.o)
 .text.node_packet_received
                0x000089f4      0x2e4 contiki-sky.a(collect.o)
 .text.collect_open
                0x00008cd8       0xe6 contiki-sky.a(collect.o)
                0x00008cd8                collect_open
 .text.collect_close
                0x00008dbe       0x2c contiki-sky.a(collect.o)
                0x00008dbe                collect_close
 .text.collect_set_sink
                0x00008dea       0x62 contiki-sky.a(collect.o)
                0x00008dea                collect_set_sink
 .text.collect_send
                0x00008e4c       0xea contiki-sky.a(collect.o)
                0x00008e4c                collect_send
 .text.collect_depth
                0x00008f36        0x6 contiki-sky.a(collect.o)
                0x00008f36                collect_depth
 .text.collect_link_estimate_new
                0x00008f3c       0x12 contiki-sky.a(collect-link-es)
                0x00008f3c                collect_link_estimate_new
 .text.collect_link_estimate_update_tx
                0x00008f4e       0x9a contiki-sky.a(collect-link-es)
                0x00008f4e                collect_link_estimate_update_tx
 .text.collect_link_estimate_update_tx_fail
                0x00008fe8        0xc contiki-sky.a(collect-link-es)
                0x00008fe8                collect_link_estimate_update_tx_fail
 .text.collect_link_estimate
                0x00008ff4       0x18 contiki-sky.a(collect-link-es)
                0x00008ff4                collect_link_estimate
 .text.collect_link_estimate_num_estimates
                0x0000900c        0xe contiki-sky.a(collect-link-es)
                0x0000900c                collect_link_estimate_num_estimates
 .text.periodic
                0x0000901a       0x8e contiki-sky.a(collect-neighbo)
 .text.collect_neighbor_init
                0x000090a8       0x14 contiki-sky.a(collect-neighbo)
                0x000090a8                collect_neighbor_init
 .text.collect_neighbor_list_new
                0x000090bc       0x32 contiki-sky.a(collect-neighbo)
                0x000090bc                collect_neighbor_list_new
 .text.collect_neighbor_list_find
                0x000090ee       0x3c contiki-sky.a(collect-neighbo)
                0x000090ee                collect_neighbor_list_find
 .text.collect_neighbor_list_add
                0x0000912a       0xb0 contiki-sky.a(collect-neighbo)
                0x0000912a                collect_neighbor_list_add
 .text.collect_neighbor_list
                0x000091da        0xe contiki-sky.a(collect-neighbo)
                0x000091da                collect_neighbor_list
 .text.collect_neighbor_update_rtmetric
                0x000091e8        0xe contiki-sky.a(collect-neighbo)
                0x000091e8                collect_neighbor_update_rtmetric
 .text.collect_neighbor_tx_fail
                0x000091f6       0x1e contiki-sky.a(collect-neighbo)
                0x000091f6                collect_neighbor_tx_fail
 .text.collect_neighbor_tx
                0x00009214       0x1e contiki-sky.a(collect-neighbo)
                0x00009214                collect_neighbor_tx
 .text.collect_neighbor_rtmetric_link_estimate
                0x00009232       0x1c contiki-sky.a(collect-neighbo)
                0x00009232                collect_neighbor_rtmetric_link_estimate
 .text.collect_neighbor_list_best
                0x0000924e       0x4a contiki-sky.a(collect-neighbo)
                0x0000924e                collect_neighbor_list_best
 .text.collect_neighbor_rtmetric
                0x00009298        0xe contiki-sky.a(collect-neighbo)
                0x00009298                collect_neighbor_rtmetric
 .text.collect_neighbor_set_congested
                0x000092a6       0x14 contiki-sky.a(collect-neighbo)
                0x000092a6                collect_neighbor_set_congested
 .text.collect_neighbor_is_congested
                0x000092ba       0x1c contiki-sky.a(collect-neighbo)
                0x000092ba                collect_neighbor_is_congested
 .text.collect_neighbor_link_estimate
                0x000092d6       0x2e contiki-sky.a(collect-neighbo)
                0x000092d6                collect_neighbor_link_estimate
 .text.remove_queued_packet
                0x00009304       0x36 contiki-sky.a(packetqueue.o)
 .text.packetqueue_enqueue_packetbuf
                0x0000933a       0x7a contiki-sky.a(packetqueue.o)
                0x0000933a                packetqueue_enqueue_packetbuf
 .text.packetqueue_first
                0x000093b4        0xa contiki-sky.a(packetqueue.o)
                0x000093b4                packetqueue_first
 .text.packetqueue_dequeue
                0x000093be       0x40 contiki-sky.a(packetqueue.o)
                0x000093be                packetqueue_dequeue
 .text.packetqueue_len
                0x000093fe        0xa contiki-sky.a(packetqueue.o)
                0x000093fe                packetqueue_len
 .text.packetqueue_queuebuf
                0x00009408        0xe contiki-sky.a(packetqueue.o)
                0x00009408                packetqueue_queuebuf
 .text.input    0x00009416       0x3a contiki-sky.a(rime.o)
 .text.init     0x00009450       0x2e contiki-sky.a(rime.o)
 .text.packet_sent
                0x0000947e       0x44 contiki-sky.a(rime.o)
 .text.rime_output
                0x000094c2       0x24 contiki-sky.a(rime.o)
                0x000094c2                rime_output
 .text.periodic
                0x000094e6       0x58 contiki-sky.a(route.o)
 .text.route_init
                0x0000953e       0x28 contiki-sky.a(route.o)
                0x0000953e                route_init
 .text.route_lookup
                0x00009566       0x4c contiki-sky.a(route.o)
                0x00009566                route_lookup
 .text.route_add
                0x000095b2       0x88 contiki-sky.a(route.o)
                0x000095b2                route_add
 .text.route_refresh
                0x0000963a        0xe contiki-sky.a(route.o)
                0x0000963a                route_refresh
 .text.route_remove
                0x00009648       0x1c contiki-sky.a(route.o)
                0x00009648                route_remove
 .text.route_decay
                0x00009664       0x22 contiki-sky.a(route.o)
                0x00009664                route_decay
 .text.route_set_lifetime
                0x00009686        0x6 contiki-sky.a(route.o)
                0x00009686                route_set_lifetime
 .text.timeout_handler
                0x0000968c       0x14 contiki-sky.a(route-discovery)
 .text.rreq_packet_received
                0x000096a0       0xca contiki-sky.a(route-discovery)
 .text.rrep_packet_received
                0x0000976a       0x9a contiki-sky.a(route-discovery)
 .text.route_discovery_open
                0x00009804       0x30 contiki-sky.a(route-discovery)
                0x00009804                route_discovery_open
 .text.route_discovery_discover
                0x00009834       0x6e contiki-sky.a(route-discovery)
                0x00009834                route_discovery_discover
 .text.send     0x000098a2       0x1a contiki-sky.a(trickle.o)
 .text.run_trickle
                0x000098bc       0xc4 contiki-sky.a(trickle.o)
 .text.recv     0x00009980       0x86 contiki-sky.a(trickle.o)
 .text.timer_callback
                0x00009a06        0x6 contiki-sky.a(trickle.o)
 .text.trickle_open
                0x00009a0c       0x44 contiki-sky.a(trickle.o)
                0x00009a0c                trickle_open
 .text.trickle_send
                0x00009a50       0x3e contiki-sky.a(trickle.o)
                0x00009a50                trickle_send
 .text.sent_by_broadcast
                0x00009a8e       0x10 contiki-sky.a(unicast.o)
 .text.recv_from_broadcast
                0x00009a9e       0x2e contiki-sky.a(unicast.o)
 .text.unicast_open
                0x00009acc       0x2a contiki-sky.a(unicast.o)
                0x00009acc                unicast_open
 .text.unicast_close
                0x00009af6        0x6 contiki-sky.a(unicast.o)
                0x00009af6                unicast_close
 .text.unicast_send
                0x00009afc       0x16 contiki-sky.a(unicast.o)
                0x00009afc                unicast_send
 .text.input_packet
                0x00009b12        0x6 contiki-sky.a(csma.o)
 .text.on       0x00009b18        0x6 contiki-sky.a(csma.o)
 .text.off      0x00009b1e        0x6 contiki-sky.a(csma.o)
 .text.channel_check_interval
                0x00009b24       0x10 contiki-sky.a(csma.o)
 .text.transmit_packet_list
                0x00009b34       0x24 contiki-sky.a(csma.o)
 .text.init     0x00009b58       0x1a contiki-sky.a(csma.o)
 .text.send_packet
                0x00009b72      0x184 contiki-sky.a(csma.o)
 .text.free_packet
                0x00009cf6       0x98 contiki-sky.a(csma.o)
 .text.packet_sent
                0x00009d8e      0x130 contiki-sky.a(csma.o)
 .text.mac_call_sent_callback
                0x00009ebe       0x14 contiki-sky.a(mac.o)
                0x00009ebe                mac_call_sent_callback
 .text.linkaddr_copy
                0x00009ed2        0xc contiki-sky.a(linkaddr.o)
                0x00009ed2                linkaddr_copy
 .text.linkaddr_cmp
                0x00009ede       0x12 contiki-sky.a(linkaddr.o)
                0x00009ede                linkaddr_cmp
 .text.linkaddr_set_node_addr
                0x00009ef0        0xc contiki-sky.a(linkaddr.o)
                0x00009ef0                linkaddr_set_node_addr
 .text.packetbuf_compact
                0x00009efc       0x2e contiki-sky.a(packetbuf.o)
                0x00009efc                packetbuf_compact
 .text.packetbuf_copyto
                0x00009f2a       0x52 contiki-sky.a(packetbuf.o)
                0x00009f2a                packetbuf_copyto
 .text.packetbuf_hdrreduce
                0x00009f7c       0x1a contiki-sky.a(packetbuf.o)
                0x00009f7c                packetbuf_hdrreduce
 .text.packetbuf_set_datalen
                0x00009f96        0x6 contiki-sky.a(packetbuf.o)
                0x00009f96                packetbuf_set_datalen
 .text.packetbuf_dataptr
                0x00009f9c        0xe contiki-sky.a(packetbuf.o)
                0x00009f9c                packetbuf_dataptr
 .text.packetbuf_hdrptr
                0x00009faa        0xa contiki-sky.a(packetbuf.o)
                0x00009faa                packetbuf_hdrptr
 .text.packetbuf_datalen
                0x00009fb4        0x6 contiki-sky.a(packetbuf.o)
                0x00009fb4                packetbuf_datalen
 .text.packetbuf_hdrlen
                0x00009fba       0x10 contiki-sky.a(packetbuf.o)
                0x00009fba                packetbuf_hdrlen
 .text.packetbuf_totlen
                0x00009fca        0xc contiki-sky.a(packetbuf.o)
                0x00009fca                packetbuf_totlen
 .text.packetbuf_hdralloc
                0x00009fd6       0x2e contiki-sky.a(packetbuf.o)
                0x00009fd6                packetbuf_hdralloc
 .text.packetbuf_attr_clear
                0x0000a004       0x2c contiki-sky.a(packetbuf.o)
                0x0000a004                packetbuf_attr_clear
 .text.packetbuf_clear
                0x0000a030       0x1a contiki-sky.a(packetbuf.o)
                0x0000a030                packetbuf_clear
 .text.packetbuf_copyfrom
                0x0000a04a       0x2e contiki-sky.a(packetbuf.o)
                0x0000a04a                packetbuf_copyfrom
 .text.packetbuf_attr_copyto
                0x0000a078       0x20 contiki-sky.a(packetbuf.o)
                0x0000a078                packetbuf_attr_copyto
 .text.packetbuf_attr_copyfrom
                0x0000a098       0x22 contiki-sky.a(packetbuf.o)
                0x0000a098                packetbuf_attr_copyfrom
 .text.packetbuf_holds_broadcast
                0x0000a0ba        0xe contiki-sky.a(packetbuf.o)
                0x0000a0ba                packetbuf_holds_broadcast
 .text.queuebuf_init
                0x0000a0c8       0x12 contiki-sky.a(queuebuf.o)
                0x0000a0c8                queuebuf_init
 .text.queuebuf_new_from_packetbuf
                0x0000a0da       0x52 contiki-sky.a(queuebuf.o)
                0x0000a0da                queuebuf_new_from_packetbuf
 .text.queuebuf_update_attr_from_packetbuf
                0x0000a12c       0x12 contiki-sky.a(queuebuf.o)
                0x0000a12c                queuebuf_update_attr_from_packetbuf
 .text.queuebuf_update_from_packetbuf
                0x0000a13e       0x22 contiki-sky.a(queuebuf.o)
                0x0000a13e                queuebuf_update_from_packetbuf
 .text.queuebuf_free
                0x0000a160       0x2a contiki-sky.a(queuebuf.o)
                0x0000a160                queuebuf_free
 .text.queuebuf_to_packetbuf
                0x0000a18a       0x32 contiki-sky.a(queuebuf.o)
                0x0000a18a                queuebuf_to_packetbuf
 .text.queuebuf_dataptr
                0x0000a1bc       0x1c contiki-sky.a(queuebuf.o)
                0x0000a1bc                queuebuf_dataptr
 .text.queuebuf_datalen
                0x0000a1d8        0x8 contiki-sky.a(queuebuf.o)
                0x0000a1d8                queuebuf_datalen
 .text.queuebuf_attr
                0x0000a1e0        0xe contiki-sky.a(queuebuf.o)
                0x0000a1e0                queuebuf_attr
 .text.duty_cycle
                0x0000a1ee        0x6 contiki-sky.a(contikimac.o)
 .text.init     0x0000a1f4       0x2a contiki-sky.a(contikimac.o)
 .text.on       0x0000a21e       0x1a contiki-sky.a(contikimac.o)
 .text.off      0x0000a238       0x22 contiki-sky.a(contikimac.o)
 .text.recv_burst_off
                0x0000a25a        0xa contiki-sky.a(contikimac.o)
 .text.turn_off
                0x0000a264       0x20 contiki-sky.a(contikimac.o)
 .text.turn_on  0x0000a284       0x30 contiki-sky.a(contikimac.o)
 .text.schedule_powercycle_fixed.part.4
                0x0000a2b4       0x34 contiki-sky.a(contikimac.o)
 .text.powercycle_turn_radio_off
                0x0000a2e8       0x30 contiki-sky.a(contikimac.o)
 .text.input_packet
                0x0000a318       0xb6 contiki-sky.a(contikimac.o)
 .text.send_packet.isra.7
                0x0000a3ce      0x20c contiki-sky.a(contikimac.o)
 .text.qsend_list
                0x0000a5da       0xc4 contiki-sky.a(contikimac.o)
 .text.qsend_packet
                0x0000a69e       0x28 contiki-sky.a(contikimac.o)
 .text.powercycle
                0x0000a6c6      0x1d6 contiki-sky.a(contikimac.o)
 .text.hdr_length
                0x0000a89c        0x8 contiki-sky.a(contikimac-fram)
 .text.parse    0x0000a8a4       0x3e contiki-sky.a(contikimac-fram)
 .text.create   0x0000a8e2       0x26 contiki-sky.a(contikimac-fram)
 .text.create_and_secure
                0x0000a908       0x6a contiki-sky.a(contikimac-fram)
 .text.bootstrap
                0x0000a972        0x4 contiki-sky.a(nullsec.o)
 .text.send     0x0000a976        0xa contiki-sky.a(nullsec.o)
 .text.on_frame_created
                0x0000a980        0x4 contiki-sky.a(nullsec.o)
 .text.input    0x0000a984        0x6 contiki-sky.a(nullsec.o)
 .text.get_overhead
                0x0000a98a        0x4 contiki-sky.a(nullsec.o)
 .text.crc8_add
                0x0000a98e       0x1c contiki-sky.a(sht11.o)
 .text.sstart   0x0000a9aa       0x3e contiki-sky.a(sht11.o)
 .text.swrite   0x0000a9e8       0x62 contiki-sky.a(sht11.o)
 .text.sread    0x0000aa4a       0x4c contiki-sky.a(sht11.o)
 .text.sreset   0x0000aa96       0x2a contiki-sky.a(sht11.o)
 .text.scmd.part.0
                0x0000aac0       0xb4 contiki-sky.a(sht11.o)
 .text.sht11_init
                0x0000ab74       0x1a contiki-sky.a(sht11.o)
                0x0000ab74                sht11_init
 .text.sht11_off
                0x0000ab8e       0x14 contiki-sky.a(sht11.o)
                0x0000ab8e                sht11_off
 .text.sht11_temp
                0x0000aba2        0xa contiki-sky.a(sht11.o)
                0x0000aba2                sht11_temp
 .text.sht11_humidity
                0x0000abac        0xa contiki-sky.a(sht11.o)
                0x0000abac                sht11_humidity
 .text.sht11_sreg
                0x0000abb6       0x80 contiki-sky.a(sht11.o)
                0x0000abb6                sht11_sreg
 .text.spi_init
                0x0000ac36       0x30 contiki-sky.a(spi.o)
                0x0000ac36                spi_init
 .text.uip_ipchksum
                0x0000ac66       0x32 contiki-sky.a(uip-ipchksum.o)
                0x0000ac66                uip_ipchksum
 .text.compower_accumulate
                0x0000ac98       0x72 contiki-sky.a(compower.o)
                0x0000ac98                compower_accumulate
 .text.compower_clear
                0x0000ad0a       0x12 contiki-sky.a(compower.o)
                0x0000ad0a                compower_clear
 .text.compower_attrconv
                0x0000ad1c       0x10 contiki-sky.a(compower.o)
                0x0000ad1c                compower_attrconv
 .text.memb_init
                0x0000ad2c       0x36 contiki-sky.a(memb.o)
                0x0000ad2c                memb_init
 .text.memb_alloc
                0x0000ad62       0x3e contiki-sky.a(memb.o)
                0x0000ad62                memb_alloc
 .text.memb_free
                0x0000ada0       0x3a contiki-sky.a(memb.o)
                0x0000ada0                memb_free
 .text.memb_inmemb
                0x0000adda       0x2a contiki-sky.a(memb.o)
                0x0000adda                memb_inmemb
 .text.abc_open
                0x0000ae04       0x26 contiki-sky.a(abc.o)
                0x0000ae04                abc_open
 .text.abc_close
                0x0000ae2a        0x6 contiki-sky.a(abc.o)
                0x0000ae2a                abc_close
 .text.abc_send
                0x0000ae30        0x6 contiki-sky.a(abc.o)
                0x0000ae30                abc_send
 .text.abc_input
                0x0000ae36        0xe contiki-sky.a(abc.o)
                0x0000ae36                abc_input
 .text.abc_sent
                0x0000ae44       0x10 contiki-sky.a(abc.o)
                0x0000ae44                abc_sent
 .text.announcement_init
                0x0000ae54        0xa contiki-sky.a(announcement.o)
                0x0000ae54                announcement_init
 .text.announcement_register
                0x0000ae5e       0x3e contiki-sky.a(announcement.o)
                0x0000ae5e                announcement_register
 .text.announcement_remove
                0x0000ae9c        0xc contiki-sky.a(announcement.o)
                0x0000ae9c                announcement_remove
 .text.announcement_set_value
                0x0000aea8       0x28 contiki-sky.a(announcement.o)
                0x0000aea8                announcement_set_value
 .text.announcement_bump
                0x0000aed0       0x22 contiki-sky.a(announcement.o)
                0x0000aed0                announcement_bump
 .text.announcement_register_observer_callback
                0x0000aef2        0x6 contiki-sky.a(announcement.o)
                0x0000aef2                announcement_register_observer_callback
 .text.announcement_list
                0x0000aef8        0xa contiki-sky.a(announcement.o)
                0x0000aef8                announcement_list
 .text.announcement_heard
                0x0000af02       0x42 contiki-sky.a(announcement.o)
                0x0000af02                announcement_heard
 .text.adv_packet_sent
                0x0000af44        0x2 contiki-sky.a(broadcast-annou)
 .text.adv_packet_received
                0x0000af46       0x64 contiki-sky.a(broadcast-annou)
 .text.set_timers
                0x0000afaa       0x4a contiki-sky.a(broadcast-annou)
 .text.send_timer
                0x0000aff4       0x32 contiki-sky.a(broadcast-annou)
 .text.send_adv
                0x0000b026       0x66 contiki-sky.a(broadcast-annou)
 .text.new_announcement
                0x0000b08c       0x18 contiki-sky.a(broadcast-annou)
 .text.broadcast_announcement_init
                0x0000b0a4       0x48 contiki-sky.a(broadcast-annou)
                0x0000b0a4                broadcast_announcement_init
 .text.sent_by_abc
                0x0000b0ec       0x10 contiki-sky.a(broadcast.o)
 .text.recv_from_abc
                0x0000b0fc       0x26 contiki-sky.a(broadcast.o)
 .text.broadcast_open
                0x0000b122       0x2a contiki-sky.a(broadcast.o)
                0x0000b122                broadcast_open
 .text.broadcast_close
                0x0000b14c        0x6 contiki-sky.a(broadcast.o)
                0x0000b14c                broadcast_close
 .text.broadcast_send
                0x0000b152       0x1a contiki-sky.a(broadcast.o)
                0x0000b152                broadcast_send
 .text.chameleon_init
                0x0000b16c        0x6 contiki-sky.a(chameleon.o)
                0x0000b16c                chameleon_init
 .text.chameleon_parse
                0x0000b172       0x10 contiki-sky.a(chameleon.o)
                0x0000b172                chameleon_parse
 .text.chameleon_create
                0x0000b182       0x1c contiki-sky.a(chameleon.o)
                0x0000b182                chameleon_create
 .text.chameleon_hdrsize
                0x0000b19e        0x6 contiki-sky.a(chameleon.o)
                0x0000b19e                chameleon_hdrsize
 .text.channel_init
                0x0000b1a4        0xa contiki-sky.a(channel.o)
                0x0000b1a4                channel_init
 .text.channel_open
                0x0000b1ae       0x10 contiki-sky.a(channel.o)
                0x0000b1ae                channel_open
 .text.channel_close
                0x0000b1be        0xc contiki-sky.a(channel.o)
                0x0000b1be                channel_close
 .text.channel_lookup
                0x0000b1ca       0x20 contiki-sky.a(channel.o)
                0x0000b1ca                channel_lookup
 .text.channel_set_attributes
                0x0000b1ea       0x24 contiki-sky.a(channel.o)
                0x0000b1ea                channel_set_attributes
 .text.sent     0x0000b20e       0x10 contiki-sky.a(netflood.o)
 .text.dropped  0x0000b21e       0x10 contiki-sky.a(netflood.o)
 .text.recv_from_ipolite
                0x0000b22e       0xee contiki-sky.a(netflood.o)
 .text.netflood_open
                0x0000b31c       0x2e contiki-sky.a(netflood.o)
                0x0000b31c                netflood_open
 .text.netflood_send
                0x0000b34a       0x62 contiki-sky.a(netflood.o)
                0x0000b34a                netflood_send
 .text.create_frame.isra.0
                0x0000b3ac      0x104 contiki-sky.a(framer-802154.o)
 .text.create   0x0000b4b0        0x8 contiki-sky.a(framer-802154.o)
 .text.hdr_length
                0x0000b4b8        0x8 contiki-sky.a(framer-802154.o)
 .text.parse    0x0000b4c0       0xa4 contiki-sky.a(framer-802154.o)
 .text.framer_canonical_create_and_secure
                0x0000b564       0x20 contiki-sky.a(framer.o)
                0x0000b564                framer_canonical_create_and_secure
 .text.mac_sequence_is_duplicate
                0x0000b584       0x3c contiki-sky.a(mac-sequence.o)
                0x0000b584                mac_sequence_is_duplicate
 .text.mac_sequence_register_seqno
                0x0000b5c0       0x5c contiki-sky.a(mac-sequence.o)
                0x0000b5c0                mac_sequence_register_seqno
 .text.header_size
                0x0000b61c       0x16 contiki-sky.a(chameleon-bitop)
 .text.get_bits_in_byte
                0x0000b632       0x3a contiki-sky.a(chameleon-bitop)
                0x0000b632                get_bits_in_byte
 .text.get_bits
                0x0000b66c       0xa2 contiki-sky.a(chameleon-bitop)
                0x0000b66c                get_bits
 .text.unpack_header
                0x0000b70e       0xd2 contiki-sky.a(chameleon-bitop)
 .text.set_bits_in_byte
                0x0000b7e0       0x2c contiki-sky.a(chameleon-bitop)
                0x0000b7e0                set_bits_in_byte
 .text.set_bits
                0x0000b80c       0xc8 contiki-sky.a(chameleon-bitop)
                0x0000b80c                set_bits
 .text.pack_header
                0x0000b8d4       0xbe contiki-sky.a(chameleon-bitop)
 .text.sent     0x0000b992        0x2 contiki-sky.a(ipolite.o)
 .text.send     0x0000b994       0x36 contiki-sky.a(ipolite.o)
 .text.recv     0x0000b9ca       0xa6 contiki-sky.a(ipolite.o)
 .text.ipolite_open
                0x0000ba70       0x24 contiki-sky.a(ipolite.o)
                0x0000ba70                ipolite_open
 .text.ipolite_send
                0x0000ba94       0xaa contiki-sky.a(ipolite.o)
                0x0000ba94                ipolite_send
 .text.field_len
                0x0000bb3e       0x90 contiki-sky.a(frame802154.o)
 .text.frame802154_hdrlen
                0x0000bbce       0x2e contiki-sky.a(frame802154.o)
                0x0000bbce                frame802154_hdrlen
 .text.frame802154_create
                0x0000bbfc      0x146 contiki-sky.a(frame802154.o)
                0x0000bbfc                frame802154_create
 .text.frame802154_parse
                0x0000bd42      0x1ba contiki-sky.a(frame802154.o)
                0x0000bd42                frame802154_parse
 .text.libgcc   0x0000befc       0x2c /usr/local/msp430/bin/../lib/gcc/msp430/4.7.0/mmpy-16/libgcc.a(_mulsi3.o)
                0x0000befc                __mulsi3
 .text.libgcc   0x0000bf28       0x3a /usr/local/msp430/bin/../lib/gcc/msp430/4.7.0/mmpy-16/libgcc.a(_divmod16.o)
                0x0000bf28                __ext_divmod16
                0x0000bf28                __divhi3
                0x0000bf5a                __modhi3
 .text.libgcc   0x0000bf62       0x40 /usr/local/msp430/bin/../lib/gcc/msp430/4.7.0/mmpy-16/libgcc.a(_udivmod32.o)
                0x0000bf62                __udivsi3
                0x0000bf62                __ext_udivmod32
                0x0000bf98                __umodsi3
 .text.libgcc   0x0000bfa2       0x22 /usr/local/msp430/bin/../lib/gcc/msp430/4.7.0/mmpy-16/libgcc.a(_udivmod16.o)
                0x0000bfa2                __udivhi3
                0x0000bfa2                __ext_udivmod16
                0x0000bfbc                __umodhi3
 .text.printf   0x0000bfc4       0x10 /usr/local/msp430/bin/../lib/gcc/msp430/4.7.0/../../../../msp430/lib/mmpy-16/libc.a(printf.o)
                0x0000bfc4                printf
 .text.print_field
                0x0000bfd4      0x194 /usr/local/msp430/bin/../lib/gcc/msp430/4.7.0/../../../../msp430/lib/mmpy-16/libc.a(vuprintf.o)
 .text.vuprintf
                0x0000c168      0x63c /usr/local/msp430/bin/../lib/gcc/msp430/4.7.0/../../../../msp430/lib/mmpy-16/libc.a(vuprintf.o)
                0x0000c168                vuprintf
 .text.puts     0x0000c7a4       0x2c /usr/local/msp430/bin/../lib/gcc/msp430/4.7.0/../../../../msp430/lib/mmpy-16/libc.a(puts.o)
                0x0000c7a4                puts
 .text.rand     0x0000c7d0       0x26 /usr/local/msp430/bin/../lib/gcc/msp430/4.7.0/../../../../msp430/lib/mmpy-16/libc.a(rand.o)
                0x0000c7d0                rand
 .text.srand    0x0000c7f6        0xa /usr/local/msp430/bin/../lib/gcc/msp430/4.7.0/../../../../msp430/lib/mmpy-16/libc.a(rand.o)
                0x0000c7f6                srand
 .text.strncmp  0x0000c800       0x2a /usr/local/msp430/bin/../lib/gcc/msp430/4.7.0/../../../../msp430/lib/mmpy-16/libc.a(strncmp.o)
                0x0000c800                strncmp
 .text.memcmp   0x0000c82a       0x30 /usr/local/msp430/bin/../lib/gcc/msp430/4.7.0/../../../../msp430/lib/mmpy-16/libc.a(memcmp.o)
                0x0000c82a                memcmp
 .text.memcpy   0x0000c85a       0xfa /usr/local/msp430/bin/../lib/gcc/msp430/4.7.0/../../../../msp430/lib/mmpy-16/libc.a(memcpy.o)
                0x0000c85a                memcpy
 .text.memset   0x0000c954       0x6a /usr/local/msp430/bin/../lib/gcc/msp430/4.7.0/../../../../msp430/lib/mmpy-16/libc.a(memset.o)
                0x0000c954                memset
 .text.libgcc   0x0000c9be       0xf0 /usr/local/msp430/bin/../lib/gcc/msp430/4.7.0/mmpy-16/libgcc.a(_udivmod64.o)
                0x0000c9be                __xabi_udivmod64
                0x0000ca1c                __udivdi3
                0x0000ca42                __umoddi3
                0x0000ca70                __udivmoddi4
 .text.crt0     0x0000caae        0x2 /usr/local/msp430/bin/../lib/gcc/msp430/4.7.0/mmpy-16/libcrt0.a(_unexpected_.o)
                0x0000caae                _unexpected_
 *(.near.text .near.text.*)

.rodata         0x0000cab0      0x3df
                0x0000cab0                . = ALIGN (0x2)
 *(.rodata .rodata.* .gnu.linkonce.r.*)
 .rodata        0x0000cab0       0x9e sky-collect.co
                0x0000cb20                autostart_processes
 .rodata        0x0000cb4e      0x15a obj_sky/contiki-sky-main.o
 .rodata        0x0000cca8        0xe contiki-sky.a(sht11-sensor.o)
                0x0000ccae                sht11_sensor
 .rodata        0x0000ccb6        0xe contiki-sky.a(light-sensor.o)
                0x0000ccbc                light_sensor
 .rodata        0x0000ccc4       0x10 contiki-sky.a(button-sensor.o)
                0x0000cccc                button_sensor
 .rodata        0x0000ccd4        0x8 contiki-sky.a(sensors.o)
 .rodata.get_value
                0x0000ccdc       0x1c contiki-sky.a(cc2420.o)
 .rodata        0x0000ccf8       0x3e contiki-sky.a(cc2420.o)
                0x0000ccf8                cc2420_aes_128_driver
                0x0000ccfc                cc2420_driver
 .rodata        0x0000cd36       0x26 contiki-sky.a(slip.o)
 .rodata        0x0000cd5c        0xf contiki-sky.a(ctimer.o)
 .rodata        0x0000cd6b        0xc contiki-sky.a(etimer.o)
 *fill*         0x0000cd77        0x1 00
 .rodata.uip_process
                0x0000cd78       0x20 contiki-sky.a(uip.o)
 .rodata        0x0000cd98        0x8 contiki-sky.a(uip.o)
                0x0000cd98                uip_all_zeroes_addr
                0x0000cd9c                uip_broadcast_addr
 .rodata        0x0000cda0        0xe contiki-sky.a(uip-fw-drv.o)
 .rodata        0x0000cdae        0xa contiki-sky.a(uip-over-mesh.o)
 .rodata        0x0000cdb8        0xd contiki-sky.a(tcpip.o)
 *fill*         0x0000cdc5        0x1 00
 .rodata        0x0000cdc6       0x18 contiki-sky.a(collect.o)
 .rodata        0x0000cdde        0xc contiki-sky.a(rime.o)
                0x0000cde4                rime_driver
 .rodata        0x0000cdea        0xa contiki-sky.a(route-discovery)
 .rodata        0x0000cdf4        0xa contiki-sky.a(trickle.o)
 .rodata        0x0000cdfe        0xa contiki-sky.a(unicast.o)
 .rodata        0x0000ce08       0x14 contiki-sky.a(csma.o)
                0x0000ce0e                csma_driver
 .rodata        0x0000ce1c        0x2 contiki-sky.a(linkaddr.o)
                0x0000ce1c                linkaddr_null
 .rodata        0x0000ce1e       0x1c contiki-sky.a(contikimac.o)
                0x0000ce2a                contikimac_driver
 .rodata        0x0000ce3a        0x8 contiki-sky.a(contikimac-fram)
                0x0000ce3a                contikimac_framer
 .rodata        0x0000ce42       0x14 contiki-sky.a(nullsec.o)
                0x0000ce4a                nullsec_driver
 .rodata        0x0000ce56        0x2 contiki-sky.a(abc.o)
 .rodata        0x0000ce58        0x4 contiki-sky.a(broadcast-annou)
 .rodata        0x0000ce5c        0x8 contiki-sky.a(broadcast.o)
 .rodata        0x0000ce64        0x6 contiki-sky.a(netflood.o)
 .rodata        0x0000ce6a        0x8 contiki-sky.a(framer-802154.o)
                0x0000ce6a                framer_802154
 .rodata        0x0000ce72       0x10 contiki-sky.a(chameleon-bitop)
                0x0000ce72                chameleon_bitopt
 .rodata        0x0000ce82        0x4 contiki-sky.a(ipolite.o)
 .rodata        0x0000ce86        0x2 contiki-sky.a(frame802154.o)
 .rodata.vuprintf
                0x0000ce88        0x7 /usr/local/msp430/bin/../lib/gcc/msp430/4.7.0/../../../../msp430/lib/mmpy-16/libc.a(vuprintf.o)
 *(.near.rodata .near.rodata.*)
                0x0000ce90                . = ALIGN (0x2)
                0x0000ce90                _etext = .

.data           0x00001100       0xc0 load address 0x0000ce90
                0x00001100                . = ALIGN (0x2)
                0x00001100                __data_start = .
 *(.data .data.* .gnu.linkonce.d.*)
 .data          0x00001100       0x14 sky-collect.co
                0x00001100                depth_blink_process
                0x0000110a                test_collect_process
 .data          0x00001114       0x18 obj_sky/contiki-sky-main.o
 .data          0x0000112c        0x4 contiki-sky.a(contiki-sky-pla)
                0x0000112c                sensors
 .data          0x00001130        0x1 contiki-sky.a(sht11-sensor.o)
 *fill*         0x00001131        0x1 00
 .data          0x00001132        0xa contiki-sky.a(sensors.o)
                0x00001132                sensors_process
 .data          0x0000113c        0xa contiki-sky.a(cc2420.o)
                0x0000113c                cc2420_process
 .data          0x00001146        0xa contiki-sky.a(slip.o)
                0x00001146                slip_process
 .data          0x00001150        0x2 contiki-sky.a(msp430.o)
 .data          0x00001152        0xa contiki-sky.a(ctimer.o)
                0x00001152                ctimer_process
 .data          0x0000115c        0xa contiki-sky.a(etimer.o)
                0x0000115c                etimer_process
 .data          0x00001166        0xa contiki-sky.a(uip-fw-drv.o)
                0x00001166                uip_fw_process
 .data          0x00001170        0xa contiki-sky.a(tcpip.o)
                0x00001170                tcpip_process
 .data          0x0000117a        0x8 contiki-sky.a(collect.o)
 .data          0x00001182        0x8 contiki-sky.a(collect-neighbo)
 .data          0x0000118a        0xa contiki-sky.a(route.o)
 .data          0x00001194       0x18 contiki-sky.a(csma.o)
 .data          0x000011ac       0x10 contiki-sky.a(queuebuf.o)
 .data.next     0x000011bc        0x4 /usr/local/msp430/bin/../lib/gcc/msp430/4.7.0/../../../../msp430/lib/mmpy-16/libc.a(rand.o)
 *(.near.data .near.data.*)
                0x000011c0                . = ALIGN (0x2)
                0x000011c0                _edata = .
                0x0000ce90                __data_load_start = LOADADDR (.data)
                0x000000c0                __data_size = SIZEOF (.data)

.bss            0x000011c0     0x1c8e load address 0x0000cf50
                0x000011c0                __bss_start = .
 *(.bss .bss.*)
 .bss           0x000011c0      0x13a sky-collect.co
 .bss           0x000012fa        0xe obj_sky/contiki-sky-main.o
 .bss           0x00001308        0x8 contiki-sky.a(button-sensor.o)
 .bss           0x00001310        0x2 contiki-sky.a(node-id.o)
                0x00001310                node_id
 .bss           0x00001312        0x6 contiki-sky.a(sensors.o)
 .bss           0x00001318        0x8 contiki-sky.a(cc2420.o)
 .bss           0x00001320        0x4 contiki-sky.a(sky-sensors.o)
 .bss           0x00001324       0x9a contiki-sky.a(uart1.o)
 .bss           0x000013be        0x1 contiki-sky.a(slip_uart1.o)
 *fill*         0x000013bf        0x1 00
 .bss           0x000013c0       0x88 contiki-sky.a(slip.o)
 .bss           0x00001448        0xa contiki-sky.a(clock.o)
 .bss           0x00001452        0x1 contiki-sky.a(leds.o)
 *fill*         0x00001453        0x1 00
 .bss           0x00001454        0x2 contiki-sky.a(watchdog.o)
 .bss           0x00001456        0x4 contiki-sky.a(ctimer.o)
 .bss           0x0000145a        0x6 contiki-sky.a(etimer.o)
 .bss           0x00001460       0x42 contiki-sky.a(process.o)
                0x00001460                process_current
                0x00001462                process_list
 .bss           0x000014a2        0x2 contiki-sky.a(rtimer.o)
 .bss           0x000014a4       0x14 contiki-sky.a(uip.o)
                0x000014a4                uip_lladdr
 .bss           0x000014b8      0x1a8 contiki-sky.a(uip-fw.o)
 .bss           0x00001660       0xd2 contiki-sky.a(uip-over-mesh.o)
 .bss           0x00001732       0x36 contiki-sky.a(tcpip.o)
 .bss           0x00001768      0x1be contiki-sky.a(collect.o)
 .bss           0x00001926      0x322 contiki-sky.a(collect-neighbo)
 .bss           0x00001c48        0x2 contiki-sky.a(rime.o)
 .bss           0x00001c4a       0x7e contiki-sky.a(route.o)
 .bss           0x00001cc8        0x1 contiki-sky.a(route-discovery)
 *fill*         0x00001cc9        0x1 00
 .bss           0x00001cca      0x128 contiki-sky.a(csma.o)
 .bss           0x00001df2       0xb8 contiki-sky.a(packetbuf.o)
 .bss           0x00001eaa      0xc20 contiki-sky.a(queuebuf.o)
 .bss           0x00002aca       0x32 contiki-sky.a(contikimac.o)
 .bss           0x00002afc        0x8 contiki-sky.a(compower.o)
 .bss           0x00002b04        0x6 contiki-sky.a(announcement.o)
 .bss           0x00002b0a       0x46 contiki-sky.a(broadcast-annou)
 .bss           0x00002b50        0x2 contiki-sky.a(channel.o)
 .bss           0x00002b52        0x2 contiki-sky.a(framer-802154.o)
 .bss           0x00002b54       0x40 contiki-sky.a(mac-sequence.o)
 *(.near.bss .near.bss.*)
 *(COMMON)
 COMMON         0x00002b94        0x2 contiki-sky.a(contiki-sky-pla)
                0x00002b94                sensors_flags
 COMMON         0x00002b96        0x8 contiki-sky.a(ds2411.o)
                0x00002b96                ds2411_id
 COMMON         0x00002b9e        0x1 contiki-sky.a(sensors.o)
                0x00002b9e                sensors_event
 *fill*         0x00002b9f        0x1 00
 COMMON         0x00002ba0       0x10 contiki-sky.a(cc2420.o)
                0x00002ba0                cc2420_last_rssi
                0x00002ba2                cc2420_sfd_start_time
                0x00002ba4                cc2420_time_of_departure
                0x00002ba6                cc2420_time_of_arrival
                0x00002ba8                cc2420_last_correlation
                0x00002baa                cc2420_authority_level_of_sender
                0x00002bac                cc2420_sfd_counter
                0x00002bae                cc2420_sfd_end_time
 COMMON         0x00002bb0        0x1 contiki-sky.a(slip.o)
                0x00002bb0                slip_active
 *fill*         0x00002bb1        0x1 00
 COMMON         0x00002bb2        0x2 contiki-sky.a(msp430.o)
                0x00002bb2                msp430_dco_required
 COMMON         0x00002bb4       0x56 contiki-sky.a(energest.o)
                0x00002bb4                energest_total_time
                0x00002be4                energest_total_count
                0x00002be6                energest_current_mode
                0x00002bf2                energest_current_time
 COMMON         0x00002c0a        0x1 contiki-sky.a(process.o)
                0x00002c0a                process_maxevents
 *fill*         0x00002c0b        0x1 00
 COMMON         0x00002c0c      0x1c2 contiki-sky.a(uip.o)
                0x00002c0c                uip_len
                0x00002c0e                uip_sappdata
                0x00002c10                uip_acc32
                0x00002c14                uip_aligned_buf
                0x00002c80                uip_flags
                0x00002c82                uip_udp_conn
                0x00002c84                uip_appdata
                0x00002c86                uip_conn
                0x00002c88                uip_conns
                0x00002d08                uip_listenports
                0x00002d18                uip_draddr
                0x00002d1c                uip_netmask
                0x00002d20                uip_hostaddr
                0x00002d24                uip_slen
                0x00002d26                uip_udp_conns
 COMMON         0x00002dce        0x2 contiki-sky.a(tcpip.o)
                0x00002dce                tcpip_is_forwarding
                0x00002dcf                tcpip_event
 COMMON         0x00002dd0       0x38 contiki-sky.a(collect.o)
                0x00002dd0                stats
 COMMON         0x00002e08        0x2 contiki-sky.a(linkaddr.o)
                0x00002e08                linkaddr_node_addr
 COMMON         0x00002e0a       0x3c contiki-sky.a(packetbuf.o)
                0x00002e0a                packetbuf_addrs
                0x00002e12                packetbuf_attrs
 COMMON         0x00002e46        0x8 contiki-sky.a(compower.o)
                0x00002e46                compower_idle_activity
                0x00002e4e                . = ALIGN (0x2)
                0x00002e4e                __bss_end = .
                0x00001c8e                __bss_size = SIZEOF (.bss)

.noinit         0x00002e4e        0x2 load address 0x0000cf50
                0x00002e4e                . = ALIGN (0x2)
                0x00002e4e                __noinit_start = .
 *(.noinit .noinit.*)
 .noinit.crt0   0x00002e4e        0x2 /usr/local/msp430/bin/../lib/gcc/msp430/4.7.0/mmpy-16/libcrt0.a(__watchdog_support.o)
                0x00002e4e                __wdt_clear_value
                0x00002e50                . = ALIGN (0x2)
                0x00002e50                __noinit_end = .
                0x00002e50                . = ALIGN (0x2)
                0x00002e50                _end = .

.infomem        0x00001000        0x0
                0x00001000                . = ALIGN (0x2)
 *(.infomem .infomem.*)

.infomemnobits  0x00001000        0x0
                0x00001000                . = ALIGN (0x2)
 *(.infomemnobits .infomemnobits.*)

.infoa          0x00001080        0x0
                0x00001080                . = ALIGN (0x2)
 *(.infoa .infoa.*)

.infob          0x00001000        0x0
                0x00001000                . = ALIGN (0x2)
 *(.infob .infob.*)

.infoc          0x00000000        0x0
                0x00000000                . = ALIGN (0x2)
 *(.infoc .infoc.*)

.infod          0x00000000        0x0
                0x00000000                . = ALIGN (0x2)
 *(.infod .infod.*)

.vectors        0x0000ffe0       0x20
                0x0000ffe0                __vectors_start = .
 *(.vectors*)
 .vectors       0x0000ffe0       0x20 /usr/local/msp430/bin/../lib/gcc/msp430/4.7.0/mmpy-16/crt0ivtbl16.o
                0x0000ffe0                __ivtbl_16
                0x00010000                _vectors_end = .

.fartext        0x00000000        0x0
                0x00000000                . = ALIGN (0x2)
 *(.fartext .fartext.*)

.far.text       0x00000000        0x0
                0x00000000                . = ALIGN (0x2)
 *(.far.text .far.text.*)

.far.rodata     0x00000000        0x0
                0x00000000                . = ALIGN (0x2)
 *(.far.rodata .far.rodata.*)
                0x00000000                . = ALIGN (0x2)
                0x00000000                _efartext = .

.far.data       0x00000000        0x0
                0x00000000                . = ALIGN (0x2)
                0x00000000                __far_data_start = .
 *(.far.data .far.data.*)
                0x00000000                . = ALIGN (0x2)
                0x00000000                _efardata = .
                0x00000000                __far_data_load_start = LOADADDR (.far.data)
                0x00000000                __far_data_size = SIZEOF (.far.data)

.far.bss        0x00000000        0x0
                0x00000000                . = ALIGN (0x2)
                0x00000000                __far_bss_start = .
 *(.far.bss .far.bss.*)
                0x00000000                . = ALIGN (0x2)
                0x00000000                __far_bss_end = .
                0x00000000                __far_bss_size = SIZEOF (.far.bss)
                0x00000000                . = ALIGN (0x2)
                0x00000000                _far_end = .

.profiler
 *(.profiler)

.stab           0x00000000    0x27564
 *(.stab)
 .stab          0x00000000     0x1ad0 sky-collect.co
 .stab          0x00001ad0     0x10c8 obj_sky/contiki-sky-main.o
                               0x195c (size before relaxing)
 .stab          0x00002b98      0x24c contiki-sky.a(contiki-sky-pla)
                                0x5ac (size before relaxing)
 .stab          0x00002de4      0x438 contiki-sky.a(sht11-sensor.o)
                                0x948 (size before relaxing)
 .stab          0x0000321c      0x324 contiki-sky.a(light-sensor.o)
                                0x690 (size before relaxing)
 .stab          0x00003540      0x468 contiki-sky.a(button-sensor.o)
                                0x7d4 (size before relaxing)
 .stab          0x000039a8      0x618 contiki-sky.a(ds2411.o)
                                0xb34 (size before relaxing)
 .stab          0x00003fc0      0xb4c contiki-sky.a(xmem.o)
                                0xf00 (size before relaxing)
 .stab          0x00004b0c      0x2b8 contiki-sky.a(node-id.o)
                                0x4e0 (size before relaxing)
 .stab          0x00004dc4      0x684 contiki-sky.a(sensors.o)
                                0xbb8 (size before relaxing)
 .stab          0x00005448     0x24fc contiki-sky.a(cc2420.o)
                               0x2c40 (size before relaxing)
 .stab          0x00007944      0xa38 contiki-sky.a(cc2420-arch.o)
                               0x13f8 (size before relaxing)
 .stab          0x0000837c      0x4ec contiki-sky.a(sky-sensors.o)
                                0x858 (size before relaxing)
 .stab          0x00008868      0x600 contiki-sky.a(uart1.o)
                                0x954 (size before relaxing)
 .stab          0x00008e68      0x330 contiki-sky.a(slip_uart1.o)
                                0x684 (size before relaxing)
 .stab          0x00009198      0xb70 contiki-sky.a(slip.o)
                               0x1308 (size before relaxing)
 .stab          0x00009d08      0x72c contiki-sky.a(msp430.o)
                                0xa80 (size before relaxing)
 .stab          0x0000a434      0x930 contiki-sky.a(clock.o)
                                0xc84 (size before relaxing)
 .stab          0x0000ad64      0x5a0 contiki-sky.a(leds.o)
                                0x7ec (size before relaxing)
 .stab          0x0000b304      0x378 contiki-sky.a(leds-arch.o)
                                0x6cc (size before relaxing)
 .stab          0x0000b67c      0x3cc contiki-sky.a(watchdog.o)
                                0x720 (size before relaxing)
 .stab          0x0000ba48      0x3b4 contiki-sky.a(rtimer-arch.o)
                                0x708 (size before relaxing)
 .stab          0x0000bdfc      0x294 contiki-sky.a(autostart.o)
                                0x534 (size before relaxing)
 .stab          0x0000c090      0x78c contiki-sky.a(ctimer.o)
                                0xaf8 (size before relaxing)
 .stab          0x0000c81c      0x474 contiki-sky.a(energest.o)
                                0x6fc (size before relaxing)
 .stab          0x0000cc90      0x9fc contiki-sky.a(etimer.o)
                                0xccc (size before relaxing)
 .stab          0x0000d68c      0xb70 contiki-sky.a(process.o)
                               0x1008 (size before relaxing)
 .stab          0x0000e1fc      0x3cc contiki-sky.a(rtimer.o)
                                0x6b4 (size before relaxing)
 .stab          0x0000e5c8      0x348 contiki-sky.a(timer.o)
                                0x588 (size before relaxing)
 .stab          0x0000e910      0x7bc contiki-sky.a(list.o)
                                0x7c8 (size before relaxing)
 .stab          0x0000f0cc      0x21c contiki-sky.a(random.o)
                                0x618 (size before relaxing)
 .stab          0x0000f2e8     0x2418 contiki-sky.a(uip.o)
                               0x2b74 (size before relaxing)
 .stab          0x00011700      0x960 contiki-sky.a(uip-fw.o)
                               0x10d4 (size before relaxing)
 .stab          0x00012060      0x2d0 contiki-sky.a(uip-fw-drv.o)
                                0xa38 (size before relaxing)
 .stab          0x00012330      0xb88 contiki-sky.a(uip-over-mesh.o)
                               0x180c (size before relaxing)
 .stab          0x00012eb8     0x1044 contiki-sky.a(tcpip.o)
                               0x1ea8 (size before relaxing)
 .stab          0x00013efc     0x1ff8 contiki-sky.a(collect.o)
                               0x2d24 (size before relaxing)
 .stab          0x00015ef4      0x5dc contiki-sky.a(collect-link-es)
                               0x1008 (size before relaxing)
 .stab          0x000164d0      0xffc contiki-sky.a(collect-neighbo)
                               0x1a64 (size before relaxing)
 .stab          0x000174cc      0x8ac contiki-sky.a(packetqueue.o)
                                0xf84 (size before relaxing)
 .stab          0x00017d78      0xa20 contiki-sky.a(rime.o)
                               0x13f8 (size before relaxing)
 .stab          0x00018798      0x9e4 contiki-sky.a(route.o)
                                0xedc (size before relaxing)
 .stab          0x0001917c      0xa2c contiki-sky.a(route-discovery)
                               0x16b0 (size before relaxing)
 .stab          0x00019ba8      0x7c8 contiki-sky.a(trickle.o)
                               0x1074 (size before relaxing)
 .stab          0x0001a370      0x618 contiki-sky.a(unicast.o)
                               0x1290 (size before relaxing)
 .stab          0x0001a988      0xdb0 contiki-sky.a(csma.o)
                               0x159c (size before relaxing)
 .stab          0x0001b738      0x1f8 contiki-sky.a(mac.o)
                                0x4ec (size before relaxing)
 .stab          0x0001b930      0x2ac contiki-sky.a(linkaddr.o)
                                0x6a8 (size before relaxing)
 .stab          0x0001bbdc      0xd74 contiki-sky.a(packetbuf.o)
                               0x1bc0 (size before relaxing)
 .stab          0x0001c950      0xa38 contiki-sky.a(queuebuf.o)
                               0x186c (size before relaxing)
 .stab          0x0001d388     0x17ac contiki-sky.a(contikimac.o)
                               0x23b8 (size before relaxing)
 .stab          0x0001eb34      0x6d8 contiki-sky.a(contikimac-fram)
                                0xf18 (size before relaxing)
 .stab          0x0001f20c      0x684 contiki-sky.a(nullsec.o)
                                0xd80 (size before relaxing)
 .stab          0x0001f890      0xbb8 contiki-sky.a(sht11.o)
                               0x10e0 (size before relaxing)
 .stab          0x00020448      0x1f8 contiki-sky.a(spi.o)
                                0x420 (size before relaxing)
 .stab          0x00020640      0x300 contiki-sky.a(uip-ipchksum.o)
                                0xa50 (size before relaxing)
 .stab          0x00020940      0x4ec contiki-sky.a(compower.o)
                                0xcf0 (size before relaxing)
 .stab          0x00020e2c      0x5c4 contiki-sky.a(memb.o)
                                0xaf8 (size before relaxing)
 .stab          0x000213f0      0x660 contiki-sky.a(abc.o)
                               0x1494 (size before relaxing)
 .stab          0x00021a50      0x6b4 contiki-sky.a(announcement.o)
                                0x954 (size before relaxing)
 .stab          0x00022104      0x948 contiki-sky.a(broadcast-annou)
                               0x15c0 (size before relaxing)
 .stab          0x00022a4c      0x6cc contiki-sky.a(broadcast.o)
                               0x1500 (size before relaxing)
 .stab          0x00023118      0x5dc contiki-sky.a(chameleon.o)
                               0x1230 (size before relaxing)
 .stab          0x000236f4      0x600 contiki-sky.a(channel.o)
                               0x1278 (size before relaxing)
 .stab          0x00023cf4      0x750 contiki-sky.a(netflood.o)
                               0x1014 (size before relaxing)
 .stab          0x00024444      0x918 contiki-sky.a(framer-802154.o)
                                0xf54 (size before relaxing)
 .stab          0x00024d5c      0x318 contiki-sky.a(framer.o)
                                0xc54 (size before relaxing)
 .stab          0x00025074      0x600 contiki-sky.a(mac-sequence.o)
                               0x144c (size before relaxing)
 .stab          0x00025674      0xd44 contiki-sky.a(chameleon-bitop)
                               0x19bc (size before relaxing)
 .stab          0x000263b8      0x8b8 contiki-sky.a(ipolite.o)
                               0x153c (size before relaxing)
 .stab          0x00026c70      0x8f4 contiki-sky.a(frame802154.o)
                               0x10c8 (size before relaxing)

.stabstr        0x00000000    0x1a331
 *(.stabstr)
 .stabstr       0x00000000    0x1a331 sky-collect.co

.stab.excl
 *(.stab.excl)

.stab.exclstr
 *(.stab.exclstr)

.stab.index
 *(.stab.index)

.stab.indexstr
 *(.stab.indexstr)

.comment        0x00000000       0x30
 *(.comment)
 .comment       0x00000000       0x30 sky-collect.co
                                 0x31 (size before relaxing)
 .comment       0x00000000       0x31 obj_sky/contiki-sky-main.o
 .comment       0x00000000       0x31 contiki-sky.a(contiki-sky-pla)
 .comment       0x00000000       0x31 contiki-sky.a(sht11-sensor.o)
 .comment       0x00000000       0x31 contiki-sky.a(light-sensor.o)
 .comment       0x00000000       0x31 contiki-sky.a(button-sensor.o)
 .comment       0x00000000       0x31 contiki-sky.a(ds2411.o)
 .comment       0x00000000       0x31 contiki-sky.a(xmem.o)
 .comment       0x00000000       0x31 contiki-sky.a(node-id.o)
 .comment       0x00000000       0x31 contiki-sky.a(sensors.o)
 .comment       0x00000000       0x31 contiki-sky.a(cc2420.o)
 .comment       0x00000000       0x31 contiki-sky.a(cc2420-arch.o)
 .comment       0x00000000       0x31 contiki-sky.a(sky-sensors.o)
 .comment       0x00000000       0x31 contiki-sky.a(uart1.o)
 .comment       0x00000000       0x31 contiki-sky.a(slip_uart1.o)
 .comment       0x00000000       0x31 contiki-sky.a(slip.o)
 .comment       0x00000000       0x31 contiki-sky.a(msp430.o)
 .comment       0x00000000       0x31 contiki-sky.a(clock.o)
 .comment       0x00000000       0x31 contiki-sky.a(leds.o)
 .comment       0x00000000       0x31 contiki-sky.a(leds-arch.o)
 .comment       0x00000000       0x31 contiki-sky.a(watchdog.o)
 .comment       0x00000000       0x31 contiki-sky.a(rtimer-arch.o)
 .comment       0x00000000       0x31 contiki-sky.a(autostart.o)
 .comment       0x00000000       0x31 contiki-sky.a(ctimer.o)
 .comment       0x00000000       0x31 contiki-sky.a(energest.o)
 .comment       0x00000000       0x31 contiki-sky.a(etimer.o)
 .comment       0x00000000       0x31 contiki-sky.a(process.o)
 .comment       0x00000000       0x31 contiki-sky.a(rtimer.o)
 .comment       0x00000000       0x31 contiki-sky.a(timer.o)
 .comment       0x00000000       0x31 contiki-sky.a(list.o)
 .comment       0x00000000       0x31 contiki-sky.a(random.o)
 .comment       0x00000000       0x31 contiki-sky.a(uip.o)
 .comment       0x00000000       0x31 contiki-sky.a(uip-fw.o)
 .comment       0x00000000       0x31 contiki-sky.a(uip-fw-drv.o)
 .comment       0x00000000       0x31 contiki-sky.a(uip-over-mesh.o)
 .comment       0x00000000       0x31 contiki-sky.a(tcpip.o)
 .comment       0x00000000       0x31 contiki-sky.a(collect.o)
 .comment       0x00000000       0x31 contiki-sky.a(collect-link-es)
 .comment       0x00000000       0x31 contiki-sky.a(collect-neighbo)
 .comment       0x00000000       0x31 contiki-sky.a(packetqueue.o)
 .comment       0x00000000       0x31 contiki-sky.a(rime.o)
 .comment       0x00000000       0x31 contiki-sky.a(route.o)
 .comment       0x00000000       0x31 contiki-sky.a(route-discovery)
 .comment       0x00000000       0x31 contiki-sky.a(trickle.o)
 .comment       0x00000000       0x31 contiki-sky.a(unicast.o)
 .comment       0x00000000       0x31 contiki-sky.a(csma.o)
 .comment       0x00000000       0x31 contiki-sky.a(mac.o)
 .comment       0x00000000       0x31 contiki-sky.a(linkaddr.o)
 .comment       0x00000000       0x31 contiki-sky.a(packetbuf.o)
 .comment       0x00000000       0x31 contiki-sky.a(queuebuf.o)
 .comment       0x00000000       0x31 contiki-sky.a(contikimac.o)
 .comment       0x00000000       0x31 contiki-sky.a(contikimac-fram)
 .comment       0x00000000       0x31 contiki-sky.a(nullsec.o)
 .comment       0x00000000       0x31 contiki-sky.a(sht11.o)
 .comment       0x00000000       0x31 contiki-sky.a(spi.o)
 .comment       0x00000000       0x31 contiki-sky.a(uip-ipchksum.o)
 .comment       0x00000000       0x31 contiki-sky.a(compower.o)
 .comment       0x00000000       0x31 contiki-sky.a(memb.o)
 .comment       0x00000000       0x31 contiki-sky.a(abc.o)
 .comment       0x00000000       0x31 contiki-sky.a(announcement.o)
 .comment       0x00000000       0x31 contiki-sky.a(broadcast-annou)
 .comment       0x00000000       0x31 contiki-sky.a(broadcast.o)
 .comment       0x00000000       0x31 contiki-sky.a(chameleon.o)
 .comment       0x00000000       0x31 contiki-sky.a(channel.o)
 .comment       0x00000000       0x31 contiki-sky.a(netflood.o)
 .comment       0x00000000       0x31 contiki-sky.a(framer-802154.o)
 .comment       0x00000000       0x31 contiki-sky.a(framer.o)
 .comment       0x00000000       0x31 contiki-sky.a(mac-sequence.o)
 .comment       0x00000000       0x31 contiki-sky.a(chameleon-bitop)
 .comment       0x00000000       0x31 contiki-sky.a(ipolite.o)
 .comment       0x00000000       0x31 contiki-sky.a(frame802154.o)
 .comment       0x00000000       0x31 /usr/local/msp430/bin/../lib/gcc/msp430/4.7.0/../../../../msp430/lib/mmpy-16/libc.a(printf.o)
 .comment       0x00000000       0x31 /usr/local/msp430/bin/../lib/gcc/msp430/4.7.0/../../../../msp430/lib/mmpy-16/libc.a(vuprintf.o)
 .comment       0x00000000       0x31 /usr/local/msp430/bin/../lib/gcc/msp430/4.7.0/../../../../msp430/lib/mmpy-16/libc.a(puts.o)
 .comment       0x00000000       0x31 /usr/local/msp430/bin/../lib/gcc/msp430/4.7.0/../../../../msp430/lib/mmpy-16/libc.a(rand.o)
 .comment       0x00000000       0x31 /usr/local/msp430/bin/../lib/gcc/msp430/4.7.0/../../../../msp430/lib/mmpy-16/libc.a(strncmp.o)
 .comment       0x00000000       0x31 /usr/local/msp430/bin/../lib/gcc/msp430/4.7.0/../../../../msp430/lib/mmpy-16/libc.a(memcmp.o)
 .comment       0x00000000       0x31 /usr/local/msp430/bin/../lib/gcc/msp430/4.7.0/../../../../msp430/lib/mmpy-16/libc.a(memcpy.o)
 .comment       0x00000000       0x31 /usr/local/msp430/bin/../lib/gcc/msp430/4.7.0/../../../../msp430/lib/mmpy-16/libc.a(memset.o)

.debug
 *(.debug)

.line
 *(.line)

.debug_srcinfo
 *(.debug_srcinfo)

.debug_sfnames
 *(.debug_sfnames)

.debug_aranges  0x00000000      0x1a0
 *(.debug_aranges)
 .debug_aranges
                0x00000000       0x14 /usr/local/msp430/bin/../lib/gcc/msp430/4.7.0/mmpy-16/crt0ivtbl16.o
 .debug_aranges
                0x00000014       0x14 /usr/local/msp430/bin/../lib/gcc/msp430/4.7.0/mmpy-16/libgcc.a(_mulsi3.o)
 .debug_aranges
                0x00000028       0x14 /usr/local/msp430/bin/../lib/gcc/msp430/4.7.0/mmpy-16/libgcc.a(_divmod16.o)
 .debug_aranges
                0x0000003c       0x14 /usr/local/msp430/bin/../lib/gcc/msp430/4.7.0/mmpy-16/libgcc.a(_udivmod32.o)
 .debug_aranges
                0x00000050       0x14 /usr/local/msp430/bin/../lib/gcc/msp430/4.7.0/mmpy-16/libgcc.a(_udivmod16.o)
 .debug_aranges
                0x00000064       0x18 /usr/local/msp430/bin/../lib/gcc/msp430/4.7.0/../../../../msp430/lib/mmpy-16/libc.a(printf.o)
 .debug_aranges
                0x0000007c       0x18 /usr/local/msp430/bin/../lib/gcc/msp430/4.7.0/../../../../msp430/lib/mmpy-16/libc.a(vuprintf.o)
 .debug_aranges
                0x00000094       0x14 /usr/local/msp430/bin/../lib/gcc/msp430/4.7.0/../../../../msp430/lib/mmpy-16/libc.a(puts.o)
 .debug_aranges
                0x000000a8       0x1c /usr/local/msp430/bin/../lib/gcc/msp430/4.7.0/../../../../msp430/lib/mmpy-16/libc.a(rand.o)
 .debug_aranges
                0x000000c4       0x14 /usr/local/msp430/bin/../lib/gcc/msp430/4.7.0/../../../../msp430/lib/mmpy-16/libc.a(strncmp.o)
 .debug_aranges
                0x000000d8       0x14 /usr/local/msp430/bin/../lib/gcc/msp430/4.7.0/../../../../msp430/lib/mmpy-16/libc.a(memcmp.o)
 .debug_aranges
                0x000000ec       0x14 /usr/local/msp430/bin/../lib/gcc/msp430/4.7.0/../../../../msp430/lib/mmpy-16/libc.a(memcpy.o)
 .debug_aranges
                0x00000100       0x14 /usr/local/msp430/bin/../lib/gcc/msp430/4.7.0/../../../../msp430/lib/mmpy-16/libc.a(memset.o)
 .debug_aranges
                0x00000114       0x14 /usr/local/msp430/bin/../lib/gcc/msp430/4.7.0/mmpy-16/libgcc.a(_udivmod64.o)
 .debug_aranges
                0x00000128       0x14 /usr/local/msp430/bin/../lib/gcc/msp430/4.7.0/mmpy-16/libcrt0.a(__watchdog_support.o)
 .debug_aranges
                0x0000013c       0x14 /usr/local/msp430/bin/../lib/gcc/msp430/4.7.0/mmpy-16/libcrt0.a(__init_stack.o)
 .debug_aranges
                0x00000150       0x14 /usr/local/msp430/bin/../lib/gcc/msp430/4.7.0/mmpy-16/libcrt0.a(_copy_data.o)
 .debug_aranges
                0x00000164       0x14 /usr/local/msp430/bin/../lib/gcc/msp430/4.7.0/mmpy-16/libcrt0.a(_clear_bss.o)
 .debug_aranges
                0x00000178       0x14 /usr/local/msp430/bin/../lib/gcc/msp430/4.7.0/mmpy-16/libcrt0.a(_endless_loop__.o)
 .debug_aranges
                0x0000018c       0x14 /usr/local/msp430/bin/../lib/gcc/msp430/4.7.0/mmpy-16/libcrt0.a(_unexpected_.o)

.debug_pubnames
 *(.debug_pubnames)

.debug_info     0x00000000     0x1450
 *(.debug_info)
 .debug_info    0x00000000       0x9b /usr/local/msp430/bin/../lib/gcc/msp430/4.7.0/mmpy-16/crt0ivtbl16.o
 .debug_info    0x0000009b       0x98 /usr/local/msp430/bin/../lib/gcc/msp430/4.7.0/mmpy-16/libgcc.a(_mulsi3.o)
 .debug_info    0x00000133       0x98 /usr/local/msp430/bin/../lib/gcc/msp430/4.7.0/mmpy-16/libgcc.a(_divmod16.o)
 .debug_info    0x000001cb       0x98 /usr/local/msp430/bin/../lib/gcc/msp430/4.7.0/mmpy-16/libgcc.a(_udivmod32.o)
 .debug_info    0x00000263       0x98 /usr/local/msp430/bin/../lib/gcc/msp430/4.7.0/mmpy-16/libgcc.a(_udivmod16.o)
 .debug_info    0x000002fb      0x16e /usr/local/msp430/bin/../lib/gcc/msp430/4.7.0/../../../../msp430/lib/mmpy-16/libc.a(printf.o)
 .debug_info    0x00000469      0x5d4 /usr/local/msp430/bin/../lib/gcc/msp430/4.7.0/../../../../msp430/lib/mmpy-16/libc.a(vuprintf.o)
 .debug_info    0x00000a3d       0xc7 /usr/local/msp430/bin/../lib/gcc/msp430/4.7.0/../../../../msp430/lib/mmpy-16/libc.a(puts.o)
 .debug_info    0x00000b04      0x146 /usr/local/msp430/bin/../lib/gcc/msp430/4.7.0/../../../../msp430/lib/mmpy-16/libc.a(rand.o)
 .debug_info    0x00000c4a       0xc2 /usr/local/msp430/bin/../lib/gcc/msp430/4.7.0/../../../../msp430/lib/mmpy-16/libc.a(strncmp.o)
 .debug_info    0x00000d0c       0xe5 /usr/local/msp430/bin/../lib/gcc/msp430/4.7.0/../../../../msp430/lib/mmpy-16/libc.a(memcmp.o)
 .debug_info    0x00000df1      0x12c /usr/local/msp430/bin/../lib/gcc/msp430/4.7.0/../../../../msp430/lib/mmpy-16/libc.a(memcpy.o)
 .debug_info    0x00000f1d      0x117 /usr/local/msp430/bin/../lib/gcc/msp430/4.7.0/../../../../msp430/lib/mmpy-16/libc.a(memset.o)
 .debug_info    0x00001034       0x98 /usr/local/msp430/bin/../lib/gcc/msp430/4.7.0/mmpy-16/libgcc.a(_udivmod64.o)
 .debug_info    0x000010cc       0x96 /usr/local/msp430/bin/../lib/gcc/msp430/4.7.0/mmpy-16/libcrt0.a(__watchdog_support.o)
 .debug_info    0x00001162       0x96 /usr/local/msp430/bin/../lib/gcc/msp430/4.7.0/mmpy-16/libcrt0.a(__init_stack.o)
 .debug_info    0x000011f8       0x96 /usr/local/msp430/bin/../lib/gcc/msp430/4.7.0/mmpy-16/libcrt0.a(_copy_data.o)
 .debug_info    0x0000128e       0x96 /usr/local/msp430/bin/../lib/gcc/msp430/4.7.0/mmpy-16/libcrt0.a(_clear_bss.o)
 .debug_info    0x00001324       0x96 /usr/local/msp430/bin/../lib/gcc/msp430/4.7.0/mmpy-16/libcrt0.a(_endless_loop__.o)
 .debug_info    0x000013ba       0x96 /usr/local/msp430/bin/../lib/gcc/msp430/4.7.0/mmpy-16/libcrt0.a(_unexpected_.o)
 *(.gnu.linkonce.wi.*)

.debug_abbrev   0x00000000      0x822
 *(.debug_abbrev)
 .debug_abbrev  0x00000000       0x14 /usr/local/msp430/bin/../lib/gcc/msp430/4.7.0/mmpy-16/crt0ivtbl16.o
 .debug_abbrev  0x00000014       0x14 /usr/local/msp430/bin/../lib/gcc/msp430/4.7.0/mmpy-16/libgcc.a(_mulsi3.o)
 .debug_abbrev  0x00000028       0x14 /usr/local/msp430/bin/../lib/gcc/msp430/4.7.0/mmpy-16/libgcc.a(_divmod16.o)
 .debug_abbrev  0x0000003c       0x14 /usr/local/msp430/bin/../lib/gcc/msp430/4.7.0/mmpy-16/libgcc.a(_udivmod32.o)
 .debug_abbrev  0x00000050       0x14 /usr/local/msp430/bin/../lib/gcc/msp430/4.7.0/mmpy-16/libgcc.a(_udivmod16.o)
 .debug_abbrev  0x00000064       0xfa /usr/local/msp430/bin/../lib/gcc/msp430/4.7.0/../../../../msp430/lib/mmpy-16/libc.a(printf.o)
 .debug_abbrev  0x0000015e      0x23e /usr/local/msp430/bin/../lib/gcc/msp430/4.7.0/../../../../msp430/lib/mmpy-16/libc.a(vuprintf.o)
 .debug_abbrev  0x0000039c       0xa3 /usr/local/msp430/bin/../lib/gcc/msp430/4.7.0/../../../../msp430/lib/mmpy-16/libc.a(puts.o)
 .debug_abbrev  0x0000043f       0xfb /usr/local/msp430/bin/../lib/gcc/msp430/4.7.0/../../../../msp430/lib/mmpy-16/libc.a(rand.o)
 .debug_abbrev  0x0000053a       0x72 /usr/local/msp430/bin/../lib/gcc/msp430/4.7.0/../../../../msp430/lib/mmpy-16/libc.a(strncmp.o)
 .debug_abbrev  0x000005ac       0x9e /usr/local/msp430/bin/../lib/gcc/msp430/4.7.0/../../../../msp430/lib/mmpy-16/libc.a(memcmp.o)
 .debug_abbrev  0x0000064a       0xab /usr/local/msp430/bin/../lib/gcc/msp430/4.7.0/../../../../msp430/lib/mmpy-16/libc.a(memcpy.o)
 .debug_abbrev  0x000006f5       0xa1 /usr/local/msp430/bin/../lib/gcc/msp430/4.7.0/../../../../msp430/lib/mmpy-16/libc.a(memset.o)
 .debug_abbrev  0x00000796       0x14 /usr/local/msp430/bin/../lib/gcc/msp430/4.7.0/mmpy-16/libgcc.a(_udivmod64.o)
 .debug_abbrev  0x000007aa       0x14 /usr/local/msp430/bin/../lib/gcc/msp430/4.7.0/mmpy-16/libcrt0.a(__watchdog_support.o)
 .debug_abbrev  0x000007be       0x14 /usr/local/msp430/bin/../lib/gcc/msp430/4.7.0/mmpy-16/libcrt0.a(__init_stack.o)
 .debug_abbrev  0x000007d2       0x14 /usr/local/msp430/bin/../lib/gcc/msp430/4.7.0/mmpy-16/libcrt0.a(_copy_data.o)
 .debug_abbrev  0x000007e6       0x14 /usr/local/msp430/bin/../lib/gcc/msp430/4.7.0/mmpy-16/libcrt0.a(_clear_bss.o)
 .debug_abbrev  0x000007fa       0x14 /usr/local/msp430/bin/../lib/gcc/msp430/4.7.0/mmpy-16/libcrt0.a(_endless_loop__.o)
 .debug_abbrev  0x0000080e       0x14 /usr/local/msp430/bin/../lib/gcc/msp430/4.7.0/mmpy-16/libcrt0.a(_unexpected_.o)

.debug_line     0x00000000      0xd05
 *(.debug_line)
 .debug_line    0x00000000       0x64 /usr/local/msp430/bin/../lib/gcc/msp430/4.7.0/mmpy-16/crt0ivtbl16.o
 .debug_line    0x00000064       0x77 /usr/local/msp430/bin/../lib/gcc/msp430/4.7.0/mmpy-16/libgcc.a(_mulsi3.o)
 .debug_line    0x000000db       0x7b /usr/local/msp430/bin/../lib/gcc/msp430/4.7.0/mmpy-16/libgcc.a(_divmod16.o)
 .debug_line    0x00000156       0x7f /usr/local/msp430/bin/../lib/gcc/msp430/4.7.0/mmpy-16/libgcc.a(_udivmod32.o)
 .debug_line    0x000001d5       0x70 /usr/local/msp430/bin/../lib/gcc/msp430/4.7.0/mmpy-16/libgcc.a(_udivmod16.o)
 .debug_line    0x00000245       0xa9 /usr/local/msp430/bin/../lib/gcc/msp430/4.7.0/../../../../msp430/lib/mmpy-16/libc.a(printf.o)
 .debug_line    0x000002ee      0x30a /usr/local/msp430/bin/../lib/gcc/msp430/4.7.0/../../../../msp430/lib/mmpy-16/libc.a(vuprintf.o)
 .debug_line    0x000005f8       0x65 /usr/local/msp430/bin/../lib/gcc/msp430/4.7.0/../../../../msp430/lib/mmpy-16/libc.a(puts.o)
 .debug_line    0x0000065d       0x68 /usr/local/msp430/bin/../lib/gcc/msp430/4.7.0/../../../../msp430/lib/mmpy-16/libc.a(rand.o)
 .debug_line    0x000006c5       0x8f /usr/local/msp430/bin/../lib/gcc/msp430/4.7.0/../../../../msp430/lib/mmpy-16/libc.a(strncmp.o)
 .debug_line    0x00000754       0x8f /usr/local/msp430/bin/../lib/gcc/msp430/4.7.0/../../../../msp430/lib/mmpy-16/libc.a(memcmp.o)
 .debug_line    0x000007e3      0x118 /usr/local/msp430/bin/../lib/gcc/msp430/4.7.0/../../../../msp430/lib/mmpy-16/libc.a(memcpy.o)
 .debug_line    0x000008fb       0xf2 /usr/local/msp430/bin/../lib/gcc/msp430/4.7.0/../../../../msp430/lib/mmpy-16/libc.a(memset.o)
 .debug_line    0x000009ed       0xc9 /usr/local/msp430/bin/../lib/gcc/msp430/4.7.0/mmpy-16/libgcc.a(_udivmod64.o)
 .debug_line    0x00000ab6       0x62 /usr/local/msp430/bin/../lib/gcc/msp430/4.7.0/mmpy-16/libcrt0.a(__watchdog_support.o)
 .debug_line    0x00000b18       0x60 /usr/local/msp430/bin/../lib/gcc/msp430/4.7.0/mmpy-16/libcrt0.a(__init_stack.o)
 .debug_line    0x00000b78       0x66 /usr/local/msp430/bin/../lib/gcc/msp430/4.7.0/mmpy-16/libcrt0.a(_copy_data.o)
 .debug_line    0x00000bde       0x66 /usr/local/msp430/bin/../lib/gcc/msp430/4.7.0/mmpy-16/libcrt0.a(_clear_bss.o)
 .debug_line    0x00000c44       0x61 /usr/local/msp430/bin/../lib/gcc/msp430/4.7.0/mmpy-16/libcrt0.a(_endless_loop__.o)
 .debug_line    0x00000ca5       0x60 /usr/local/msp430/bin/../lib/gcc/msp430/4.7.0/mmpy-16/libcrt0.a(_unexpected_.o)

.debug_frame    0x00000000      0x1da
 *(.debug_frame)
 .debug_frame   0x00000000       0x2a /usr/local/msp430/bin/../lib/gcc/msp430/4.7.0/../../../../msp430/lib/mmpy-16/libc.a(printf.o)
 .debug_frame   0x0000002a       0xa0 /usr/local/msp430/bin/../lib/gcc/msp430/4.7.0/../../../../msp430/lib/mmpy-16/libc.a(vuprintf.o)
 .debug_frame   0x000000ca       0x24 /usr/local/msp430/bin/../lib/gcc/msp430/4.7.0/../../../../msp430/lib/mmpy-16/libc.a(puts.o)
 .debug_frame   0x000000ee       0x3c /usr/local/msp430/bin/../lib/gcc/msp430/4.7.0/../../../../msp430/lib/mmpy-16/libc.a(rand.o)
 .debug_frame   0x0000012a       0x24 /usr/local/msp430/bin/../lib/gcc/msp430/4.7.0/../../../../msp430/lib/mmpy-16/libc.a(strncmp.o)
 .debug_frame   0x0000014e       0x28 /usr/local/msp430/bin/../lib/gcc/msp430/4.7.0/../../../../msp430/lib/mmpy-16/libc.a(memcmp.o)
 .debug_frame   0x00000176       0x32 /usr/local/msp430/bin/../lib/gcc/msp430/4.7.0/../../../../msp430/lib/mmpy-16/libc.a(memcpy.o)
 .debug_frame   0x000001a8       0x32 /usr/local/msp430/bin/../lib/gcc/msp430/4.7.0/../../../../msp430/lib/mmpy-16/libc.a(memset.o)

.debug_str      0x00000000      0x3f1
 *(.debug_str)
 .debug_str     0x00000000       0xee /usr/local/msp430/bin/../lib/gcc/msp430/4.7.0/../../../../msp430/lib/mmpy-16/libc.a(printf.o)
                                0x136 (size before relaxing)
 .debug_str     0x000000ee      0x218 /usr/local/msp430/bin/../lib/gcc/msp430/4.7.0/../../../../msp430/lib/mmpy-16/libc.a(vuprintf.o)
                                0x381 (size before relaxing)
 .debug_str     0x00000306       0x1d /usr/local/msp430/bin/../lib/gcc/msp430/4.7.0/../../../../msp430/lib/mmpy-16/libc.a(puts.o)
                                 0xfb (size before relaxing)
 .debug_str     0x00000323       0x2f /usr/local/msp430/bin/../lib/gcc/msp430/4.7.0/../../../../msp430/lib/mmpy-16/libc.a(rand.o)
                                0x112 (size before relaxing)
 .debug_str     0x00000352       0x22 /usr/local/msp430/bin/../lib/gcc/msp430/4.7.0/../../../../msp430/lib/mmpy-16/libc.a(strncmp.o)
                                0x100 (size before relaxing)
 .debug_str     0x00000374       0x19 /usr/local/msp430/bin/../lib/gcc/msp430/4.7.0/../../../../msp430/lib/mmpy-16/libc.a(memcmp.o)
                                 0xfe (size before relaxing)
 .debug_str     0x0000038d       0x3e /usr/local/msp430/bin/../lib/gcc/msp430/4.7.0/../../../../msp430/lib/mmpy-16/libc.a(memcpy.o)
                                0x12c (size before relaxing)
 .debug_str     0x000003cb       0x26 /usr/local/msp430/bin/../lib/gcc/msp430/4.7.0/../../../../msp430/lib/mmpy-16/libc.a(memset.o)
                                0x12a (size before relaxing)

.debug_loc      0x00000000      0xc16
 *(.debug_loc)
 .debug_loc     0x00000000       0x4c /usr/local/msp430/bin/../lib/gcc/msp430/4.7.0/../../../../msp430/lib/mmpy-16/libc.a(printf.o)
 .debug_loc     0x0000004c      0x7fa /usr/local/msp430/bin/../lib/gcc/msp430/4.7.0/../../../../msp430/lib/mmpy-16/libc.a(vuprintf.o)
 .debug_loc     0x00000846       0x26 /usr/local/msp430/bin/../lib/gcc/msp430/4.7.0/../../../../msp430/lib/mmpy-16/libc.a(puts.o)
 .debug_loc     0x0000086c       0x4f /usr/local/msp430/bin/../lib/gcc/msp430/4.7.0/../../../../msp430/lib/mmpy-16/libc.a(rand.o)
 .debug_loc     0x000008bb       0x4a /usr/local/msp430/bin/../lib/gcc/msp430/4.7.0/../../../../msp430/lib/mmpy-16/libc.a(strncmp.o)
 .debug_loc     0x00000905       0x4d /usr/local/msp430/bin/../lib/gcc/msp430/4.7.0/../../../../msp430/lib/mmpy-16/libc.a(memcmp.o)
 .debug_loc     0x00000952      0x1e3 /usr/local/msp430/bin/../lib/gcc/msp430/4.7.0/../../../../msp430/lib/mmpy-16/libc.a(memcpy.o)
 .debug_loc     0x00000b35       0xe1 /usr/local/msp430/bin/../lib/gcc/msp430/4.7.0/../../../../msp430/lib/mmpy-16/libc.a(memset.o)

.debug_macinfo
 *(.debug_macinfo)

.debug_pubtypes
 *(.debug_pubtypes)

.debug_ranges   0x00000000       0x68
 *(.debug_ranges)
 .debug_ranges  0x00000000        0xc /usr/local/msp430/bin/../lib/gcc/msp430/4.7.0/../../../../msp430/lib/mmpy-16/libc.a(printf.o)
 .debug_ranges  0x0000000c       0x24 /usr/local/msp430/bin/../lib/gcc/msp430/4.7.0/../../../../msp430/lib/mmpy-16/libc.a(vuprintf.o)
 .debug_ranges  0x00000030        0x8 /usr/local/msp430/bin/../lib/gcc/msp430/4.7.0/../../../../msp430/lib/mmpy-16/libc.a(puts.o)
 .debug_ranges  0x00000038       0x10 /usr/local/msp430/bin/../lib/gcc/msp430/4.7.0/../../../../msp430/lib/mmpy-16/libc.a(rand.o)
 .debug_ranges  0x00000048        0x8 /usr/local/msp430/bin/../lib/gcc/msp430/4.7.0/../../../../msp430/lib/mmpy-16/libc.a(strncmp.o)
 .debug_ranges  0x00000050        0x8 /usr/local/msp430/bin/../lib/gcc/msp430/4.7.0/../../../../msp430/lib/mmpy-16/libc.a(memcmp.o)
 .debug_ranges  0x00000058        0x8 /usr/local/msp430/bin/../lib/gcc/msp430/4.7.0/../../../../msp430/lib/mmpy-16/libc.a(memcpy.o)
 .debug_ranges  0x00000060        0x8 /usr/local/msp430/bin/../lib/gcc/msp430/4.7.0/../../../../msp430/lib/mmpy-16/libc.a(memset.o)
                0x00003900                PROVIDE (__stack, (ORIGIN (ram) + 0x2800))
                0x0000ce90                __data_start_rom = _etext
                0x0000cf50                __data_end_rom = (_etext + SIZEOF (.data))
OUTPUT(sky-collect.sky elf32-msp430)
