Archive member included because of file (symbol)

contiki-cc2538dk.a(contiki-main.o)
                              obj_cc2538dk/startup-gcc.o (main)
contiki-cc2538dk.a(sensors.o)
                              udp-server.co (sensors_event)
contiki-cc2538dk.a(smartrf-sensors)
                              contiki-cc2538dk.a(sensors.o) (sensors_flags)
contiki-cc2538dk.a(button-sensor.o)
                              contiki-cc2538dk.a(contiki-main.o) (button_sensor_init)
contiki-cc2538dk.a(als-sensor.o)
                              contiki-cc2538dk.a(smartrf-sensors) (als_sensor)
contiki-cc2538dk.a(clock.o)   contiki-cc2538dk.a(contiki-main.o) (clock_init)
contiki-cc2538dk.a(rtimer-arch.o)
                              contiki-cc2538dk.a(clock.o) (rtimer_arch_now)
contiki-cc2538dk.a(uart.o)    contiki-cc2538dk.a(contiki-main.o) (uart_init)
contiki-cc2538dk.a(watchdog.o)
                              contiki-cc2538dk.a(contiki-main.o) (watchdog_init)
contiki-cc2538dk.a(nvic.o)    contiki-cc2538dk.a(contiki-main.o) (nvic_init)
contiki-cc2538dk.a(cpu.o)     contiki-cc2538dk.a(contiki-main.o) (cpu_cpsie)
contiki-cc2538dk.a(sys-ctrl.o)
                              contiki-cc2538dk.a(contiki-main.o) (sys_ctrl_init)
contiki-cc2538dk.a(gpio.o)    contiki-cc2538dk.a(button-sensor.o) (gpio_register_callback)
contiki-cc2538dk.a(ioc.o)     contiki-cc2538dk.a(contiki-main.o) (ioc_init)
contiki-cc2538dk.a(adc.o)     contiki-cc2538dk.a(contiki-main.o) (adc_init)
contiki-cc2538dk.a(crypto.o)  obj_cc2538dk/startup-gcc.o (crypto_isr)
contiki-cc2538dk.a(cc2538-rf.o)
                              obj_cc2538dk/startup-gcc.o (cc2538_rf_rx_tx_isr)
contiki-cc2538dk.a(udma.o)    contiki-cc2538dk.a(contiki-main.o) (udma_init)
contiki-cc2538dk.a(lpm.o)     contiki-cc2538dk.a(rtimer-arch.o) (lpm_exit)
contiki-cc2538dk.a(dbg.o)     udp-server.co (putchar)
contiki-cc2538dk.a(ieee-addr.o)
                              contiki-cc2538dk.a(contiki-main.o) (ieee_addr_cpy_to)
contiki-cc2538dk.a(cc2538-temp-sen)
                              contiki-cc2538dk.a(smartrf-sensors) (cc2538_temp_sensor)
contiki-cc2538dk.a(vdd3-sensor.o)
                              contiki-cc2538dk.a(smartrf-sensors) (vdd3_sensor)
contiki-cc2538dk.a(dbg-printf.o)
                              udp-server.co (printf)
contiki-cc2538dk.a(strformat.o)
                              contiki-cc2538dk.a(dbg-printf.o) (format_str_v)
contiki-cc2538dk.a(autostart.o)
                              contiki-cc2538dk.a(contiki-main.o) (autostart_start)
contiki-cc2538dk.a(ctimer.o)  contiki-cc2538dk.a(contiki-main.o) (ctimer_init)
contiki-cc2538dk.a(energest.o)
                              contiki-cc2538dk.a(contiki-main.o) (energest_init)
contiki-cc2538dk.a(etimer.o)  contiki-cc2538dk.a(clock.o) (etimer_request_poll)
contiki-cc2538dk.a(process.o)
                              contiki-cc2538dk.a(sensors.o) (process_alloc_event)
contiki-cc2538dk.a(rtimer.o)  contiki-cc2538dk.a(contiki-main.o) (rtimer_init)
contiki-cc2538dk.a(timer.o)   contiki-cc2538dk.a(button-sensor.o) (timer_set)
contiki-cc2538dk.a(serial-line.o)
                              contiki-cc2538dk.a(contiki-main.o) (serial_line_input_byte)
contiki-cc2538dk.a(list.o)    contiki-cc2538dk.a(ctimer.o) (list_init)
contiki-cc2538dk.a(random.o)  contiki-cc2538dk.a(contiki-main.o) (random_init)
contiki-cc2538dk.a(ringbuf.o)
                              contiki-cc2538dk.a(serial-line.o) (ringbuf_init)
contiki-cc2538dk.a(sicslowpan.o)
                              contiki-cc2538dk.a(contiki-main.o) (sicslowpan_driver)
contiki-cc2538dk.a(uip6.o)    udp-server.co (uip_aligned_buf)
contiki-cc2538dk.a(uip-ds6.o)
                              contiki-cc2538dk.a(uip6.o) (uip_ds6_is_addr_onlink)
contiki-cc2538dk.a(uip-ds6-nbr.o)
                              contiki-cc2538dk.a(uip-ds6.o) (uip_ds6_neighbors_init)
contiki-cc2538dk.a(uip-ds6-route.o)
                              contiki-cc2538dk.a(uip-ds6.o) (uip_ds6_route_init)
contiki-cc2538dk.a(uip-icmp6.o)
                              contiki-cc2538dk.a(uip6.o) (uip_icmp6_input)
contiki-cc2538dk.a(uip-nd6.o)
                              contiki-cc2538dk.a(uip-ds6-nbr.o) (uip_nd6_ns_output)
contiki-cc2538dk.a(tcpip.o)   contiki-cc2538dk.a(sicslowpan.o) (tcpip_set_outputfunc)
contiki-cc2538dk.a(uip-debug.o)
                              udp-server.co (uip_debug_ipaddr_print)
contiki-cc2538dk.a(rpl.o)     contiki-cc2538dk.a(uip-ds6-nbr.o) (rpl_link_neighbor_callback)
contiki-cc2538dk.a(rpl-dag.o)
                              contiki-cc2538dk.a(rpl.o) (default_instance)
contiki-cc2538dk.a(rpl-ext-header.)
                              contiki-cc2538dk.a(uip6.o) (rpl_verify_header)
contiki-cc2538dk.a(rpl-icmp6.o)
                              contiki-cc2538dk.a(rpl.o) (dao_output_target)
contiki-cc2538dk.a(rpl-mrhof.o)
                              contiki-cc2538dk.a(rpl.o) (rpl_mrhof)
contiki-cc2538dk.a(rpl-timers.o)
                              contiki-cc2538dk.a(rpl.o) (rpl_reset_periodic_timer)
contiki-cc2538dk.a(linkaddr.o)
                              contiki-cc2538dk.a(sicslowpan.o) (linkaddr_copy)
contiki-cc2538dk.a(nbr-table.o)
                              contiki-cc2538dk.a(uip-ds6-nbr.o) (nbr_table_register)
contiki-cc2538dk.a(netstack.o)
                              contiki-cc2538dk.a(contiki-main.o) (netstack_init)
contiki-cc2538dk.a(packetbuf.o)
                              contiki-cc2538dk.a(cc2538-rf.o) (packetbuf_set_datalen)
contiki-cc2538dk.a(queuebuf.o)
                              contiki-cc2538dk.a(contiki-main.o) (queuebuf_init)
contiki-cc2538dk.a(csma.o)    udp-server.co (csma_driver)
contiki-cc2538dk.a(framer-802154.o)
                              contiki-cc2538dk.a(sicslowpan.o) (framer_802154)
contiki-cc2538dk.a(framer.o)  contiki-cc2538dk.a(framer-802154.o) (framer_canonical_create_and_secure)
contiki-cc2538dk.a(mac.o)     contiki-cc2538dk.a(csma.o) (mac_call_sent_callback)
contiki-cc2538dk.a(contikimac.o)
                              contiki-cc2538dk.a(contiki-main.o) (contikimac_driver)
contiki-cc2538dk.a(nullsec.o)
                              contiki-cc2538dk.a(sicslowpan.o) (nullsec_driver)
contiki-cc2538dk.a(leds.o)    contiki-cc2538dk.a(contiki-main.o) (leds_init)
contiki-cc2538dk.a(leds-arch.o)
                              contiki-cc2538dk.a(leds.o) (leds_arch_init)
contiki-cc2538dk.a(stimer.o)  contiki-cc2538dk.a(uip-ds6.o) (stimer_set)
contiki-cc2538dk.a(memb.o)    contiki-cc2538dk.a(uip-ds6-route.o) (memb_init)
contiki-cc2538dk.a(frame802154.o)
                              contiki-cc2538dk.a(framer-802154.o) (frame802154_hdrlen)
contiki-cc2538dk.a(mac-sequence.o)
                              contiki-cc2538dk.a(contikimac.o) (mac_sequence_is_duplicate)
/usr/bin/../lib/gcc/arm-none-eabi/4.9.3/armv7-m/libgcc.a(_aeabi_uldivmod.o)
                              contiki-cc2538dk.a(strformat.o) (__aeabi_uldivmod)
/usr/bin/../lib/gcc/arm-none-eabi/4.9.3/armv7-m/libgcc.a(bpabi.o)
                              /usr/bin/../lib/gcc/arm-none-eabi/4.9.3/armv7-m/libgcc.a(_aeabi_uldivmod.o) (__gnu_uldivmod_helper)
/usr/bin/../lib/gcc/arm-none-eabi/4.9.3/armv7-m/libgcc.a(_dvmd_tls.o)
                              /usr/bin/../lib/gcc/arm-none-eabi/4.9.3/armv7-m/libgcc.a(_aeabi_uldivmod.o) (__aeabi_ldiv0)
/usr/bin/../lib/gcc/arm-none-eabi/4.9.3/armv7-m/libgcc.a(_divdi3.o)
                              /usr/bin/../lib/gcc/arm-none-eabi/4.9.3/armv7-m/libgcc.a(bpabi.o) (__divdi3)
/usr/bin/../lib/gcc/arm-none-eabi/4.9.3/armv7-m/libgcc.a(_udivdi3.o)
                              /usr/bin/../lib/gcc/arm-none-eabi/4.9.3/armv7-m/libgcc.a(bpabi.o) (__udivdi3)
/usr/bin/../lib/gcc/arm-none-eabi/4.9.3/../../../../arm-none-eabi/lib/armv7-m/libc.a(lib_a-memcmp.o)
                              contiki-cc2538dk.a(sicslowpan.o) (memcmp)
/usr/bin/../lib/gcc/arm-none-eabi/4.9.3/../../../../arm-none-eabi/lib/armv7-m/libc.a(lib_a-memcpy.o)
                              contiki-cc2538dk.a(sicslowpan.o) (memcpy)
/usr/bin/../lib/gcc/arm-none-eabi/4.9.3/../../../../arm-none-eabi/lib/armv7-m/libc.a(lib_a-memmove.o)
                              contiki-cc2538dk.a(sicslowpan.o) (memmove)
/usr/bin/../lib/gcc/arm-none-eabi/4.9.3/../../../../arm-none-eabi/lib/armv7-m/libc.a(lib_a-memset.o)
                              contiki-cc2538dk.a(gpio.o) (memset)
/usr/bin/../lib/gcc/arm-none-eabi/4.9.3/../../../../arm-none-eabi/lib/armv7-m/libc.a(lib_a-strlen.o)
                              contiki-cc2538dk.a(sensors.o) (strlen)
/usr/bin/../lib/gcc/arm-none-eabi/4.9.3/../../../../arm-none-eabi/lib/armv7-m/libc.a(lib_a-strncmp.o)
                              contiki-cc2538dk.a(sensors.o) (strncmp)

Allocating common symbols
Common symbol       size              file

uip_ds6_timer_ra    0x8               contiki-cc2538dk.a(uip-ds6.o)
uip_ds6_if          0xf8              contiki-cc2538dk.a(uip-ds6.o)
uip_ds6_netif_addr_list_offset
                    0x1               contiki-cc2538dk.a(uip-ds6.o)
uip_len             0x2               contiki-cc2538dk.a(uip6.o)
uip_ds6_addr_size   0x1               contiki-cc2538dk.a(uip-ds6.o)
uip_sappdata        0x4               contiki-cc2538dk.a(uip6.o)
packetbuf_addrs     0x10              contiki-cc2538dk.a(packetbuf.o)
uip_acc32           0x4               contiki-cc2538dk.a(uip6.o)
uip_ds6_prefix_list
                    0x60              contiki-cc2538dk.a(uip-ds6.o)
frag_sender         0x8               contiki-cc2538dk.a(sicslowpan.o)
uip_lladdr          0x8               contiki-cc2538dk.a(uip6.o)
uip_aligned_buf     0x514             contiki-cc2538dk.a(uip6.o)
uip_flags           0x1               contiki-cc2538dk.a(uip6.o)
uip_ds6_timer_periodic
                    0x10              contiki-cc2538dk.a(uip-ds6.o)
uip_next_hdr        0x4               contiki-cc2538dk.a(uip6.o)
linkaddr_node_addr  0x8               contiki-cc2538dk.a(linkaddr.o)
default_instance    0x4               contiki-cc2538dk.a(rpl-dag.o)
uip_udp_conn        0x4               contiki-cc2538dk.a(uip6.o)
packetbuf_attrs     0x1e              contiki-cc2538dk.a(packetbuf.o)
instance_table      0x124             contiki-cc2538dk.a(rpl-dag.o)
uip_appdata         0x4               contiki-cc2538dk.a(uip6.o)
uip_conn            0x4               contiki-cc2538dk.a(uip6.o)
tcpip_event         0x1               contiki-cc2538dk.a(tcpip.o)
uip_conns           0x1e0             contiki-cc2538dk.a(uip6.o)
uip_icmp6_conns     0x8               contiki-cc2538dk.a(uip6.o)
uip_listenports     0x10              contiki-cc2538dk.a(uip6.o)
sensors_flags       0x9               contiki-cc2538dk.a(smartrf-sensors)
serial_line_event_message
                    0x1               contiki-cc2538dk.a(serial-line.o)
sensors_event       0x1               contiki-cc2538dk.a(sensors.o)
tcpip_icmp6_event   0x1               contiki-cc2538dk.a(tcpip.o)
uip_slen            0x2               contiki-cc2538dk.a(uip6.o)
uip_udp_conns       0x140             contiki-cc2538dk.a(uip6.o)

Discarded input sections

 .text          0x00000000        0x0 obj_cc2538dk/startup-gcc.o
 .data          0x00000000        0x0 obj_cc2538dk/startup-gcc.o
 .bss           0x00000000        0x0 obj_cc2538dk/startup-gcc.o
 .text          0x00000000        0x0 udp-server.co
 .data          0x00000000        0x0 udp-server.co
 .bss           0x00000000        0x0 udp-server.co
 .text          0x00000000        0x0 contiki-cc2538dk.a(contiki-main.o)
 .data          0x00000000        0x0 contiki-cc2538dk.a(contiki-main.o)
 .bss           0x00000000        0x0 contiki-cc2538dk.a(contiki-main.o)
 .text          0x00000000        0x0 contiki-cc2538dk.a(sensors.o)
 .data          0x00000000        0x0 contiki-cc2538dk.a(sensors.o)
 .bss           0x00000000        0x0 contiki-cc2538dk.a(sensors.o)
 .text.sensors_first
                0x00000000        0xc contiki-cc2538dk.a(sensors.o)
 .text.sensors_next
                0x00000000       0x2c contiki-cc2538dk.a(sensors.o)
 .text.sensors_find
                0x00000000       0x3c contiki-cc2538dk.a(sensors.o)
 .text          0x00000000        0x0 contiki-cc2538dk.a(smartrf-sensors)
 .data          0x00000000        0x0 contiki-cc2538dk.a(smartrf-sensors)
 .bss           0x00000000        0x0 contiki-cc2538dk.a(smartrf-sensors)
 .text          0x00000000        0x0 contiki-cc2538dk.a(button-sensor.o)
 .data          0x00000000        0x0 contiki-cc2538dk.a(button-sensor.o)
 .bss           0x00000000        0x0 contiki-cc2538dk.a(button-sensor.o)
 .text          0x00000000        0x0 contiki-cc2538dk.a(als-sensor.o)
 .data          0x00000000        0x0 contiki-cc2538dk.a(als-sensor.o)
 .bss           0x00000000        0x0 contiki-cc2538dk.a(als-sensor.o)
 .text          0x00000000        0x0 contiki-cc2538dk.a(clock.o)
 .data          0x00000000        0x0 contiki-cc2538dk.a(clock.o)
 .bss           0x00000000        0x0 contiki-cc2538dk.a(clock.o)
 .text.clock_set_seconds
                0x00000000       0x10 contiki-cc2538dk.a(clock.o)
 .text.clock_wait
                0x00000000       0x16 contiki-cc2538dk.a(clock.o)
 .text.clock_delay
                0x00000000        0x6 contiki-cc2538dk.a(clock.o)
 .text          0x00000000        0x0 contiki-cc2538dk.a(rtimer-arch.o)
 .data          0x00000000        0x0 contiki-cc2538dk.a(rtimer-arch.o)
 .bss           0x00000000        0x0 contiki-cc2538dk.a(rtimer-arch.o)
 .text          0x00000000        0x0 contiki-cc2538dk.a(uart.o)
 .data          0x00000000        0x0 contiki-cc2538dk.a(uart.o)
 .bss           0x00000000        0x0 contiki-cc2538dk.a(uart.o)
 .text          0x00000000        0x0 contiki-cc2538dk.a(watchdog.o)
 .data          0x00000000        0x0 contiki-cc2538dk.a(watchdog.o)
 .bss           0x00000000        0x0 contiki-cc2538dk.a(watchdog.o)
 .text.watchdog_reboot
                0x00000000       0x14 contiki-cc2538dk.a(watchdog.o)
 .text          0x00000000        0x0 contiki-cc2538dk.a(nvic.o)
 .data          0x00000000        0x0 contiki-cc2538dk.a(nvic.o)
 .bss           0x00000000        0x0 contiki-cc2538dk.a(nvic.o)
 .text.nvic_interrupt_en_restore
                0x00000000       0x1c contiki-cc2538dk.a(nvic.o)
 .text.nvic_interrupt_en_save
                0x00000000       0x28 contiki-cc2538dk.a(nvic.o)
 .text.nvic_interrupt_pend
                0x00000000       0x18 contiki-cc2538dk.a(nvic.o)
 .text          0x00000000        0x0 contiki-cc2538dk.a(cpu.o)
 .data          0x00000000        0x0 contiki-cc2538dk.a(cpu.o)
 .bss           0x00000000        0x0 contiki-cc2538dk.a(cpu.o)
 .text          0x00000000        0x0 contiki-cc2538dk.a(sys-ctrl.o)
 .data          0x00000000        0x0 contiki-cc2538dk.a(sys-ctrl.o)
 .bss           0x00000000        0x0 contiki-cc2538dk.a(sys-ctrl.o)
 .text.sys_ctrl_reset
                0x00000000        0xc contiki-cc2538dk.a(sys-ctrl.o)
 .text.sys_ctrl_get_sys_clock
                0x00000000       0x18 contiki-cc2538dk.a(sys-ctrl.o)
 .text.sys_ctrl_get_io_clock
                0x00000000       0x18 contiki-cc2538dk.a(sys-ctrl.o)
 .text          0x00000000        0x0 contiki-cc2538dk.a(gpio.o)
 .data          0x00000000        0x0 contiki-cc2538dk.a(gpio.o)
 .bss           0x00000000        0x0 contiki-cc2538dk.a(gpio.o)
 .text          0x00000000        0x0 contiki-cc2538dk.a(ioc.o)
 .data          0x00000000        0x0 contiki-cc2538dk.a(ioc.o)
 .bss           0x00000000        0x0 contiki-cc2538dk.a(ioc.o)
 .text          0x00000000        0x0 contiki-cc2538dk.a(adc.o)
 .data          0x00000000        0x0 contiki-cc2538dk.a(adc.o)
 .bss           0x00000000        0x0 contiki-cc2538dk.a(adc.o)
 .text          0x00000000        0x0 contiki-cc2538dk.a(crypto.o)
 .data          0x00000000        0x0 contiki-cc2538dk.a(crypto.o)
 .bss           0x00000000        0x0 contiki-cc2538dk.a(crypto.o)
 .text.permit_pm1
                0x00000000       0x10 contiki-cc2538dk.a(crypto.o)
 .text.crypto_enable
                0x00000000       0x20 contiki-cc2538dk.a(crypto.o)
 .text.crypto_init
                0x00000000       0x3c contiki-cc2538dk.a(crypto.o)
 .text.crypto_disable
                0x00000000       0x20 contiki-cc2538dk.a(crypto.o)
 .text.crypto_register_process_notification
                0x00000000        0xc contiki-cc2538dk.a(crypto.o)
 .text          0x00000000        0x0 contiki-cc2538dk.a(cc2538-rf.o)
 .data          0x00000000        0x0 contiki-cc2538dk.a(cc2538-rf.o)
 .bss           0x00000000        0x0 contiki-cc2538dk.a(cc2538-rf.o)
 .text.cc2538_rf_set_promiscous_mode
                0x00000000        0x4 contiki-cc2538dk.a(cc2538-rf.o)
 .text          0x00000000        0x0 contiki-cc2538dk.a(udma.o)
 .data          0x00000000        0x0 contiki-cc2538dk.a(udma.o)
 .bss           0x00000000        0x0 contiki-cc2538dk.a(udma.o)
 .text.udma_set_channel_assignment
                0x00000000       0x20 contiki-cc2538dk.a(udma.o)
 .text.udma_channel_disable
                0x00000000       0x14 contiki-cc2538dk.a(udma.o)
 .text.udma_channel_use_alternate
                0x00000000       0x18 contiki-cc2538dk.a(udma.o)
 .text.udma_channel_use_primary
                0x00000000       0x14 contiki-cc2538dk.a(udma.o)
 .text.udma_channel_prio_set_high
                0x00000000       0x18 contiki-cc2538dk.a(udma.o)
 .text.udma_channel_prio_set_default
                0x00000000       0x14 contiki-cc2538dk.a(udma.o)
 .text.udma_channel_use_burst
                0x00000000       0x18 contiki-cc2538dk.a(udma.o)
 .text.udma_channel_use_single
                0x00000000       0x14 contiki-cc2538dk.a(udma.o)
 .text.udma_channel_mask_clr
                0x00000000       0x14 contiki-cc2538dk.a(udma.o)
 .text          0x00000000        0x0 contiki-cc2538dk.a(lpm.o)
 .data          0x00000000        0x0 contiki-cc2538dk.a(lpm.o)
 .bss           0x00000000        0x0 contiki-cc2538dk.a(lpm.o)
 .text.lpm_set_max_pm
                0x00000000       0x10 contiki-cc2538dk.a(lpm.o)
 .text          0x00000000        0x0 contiki-cc2538dk.a(dbg.o)
 .data          0x00000000        0x0 contiki-cc2538dk.a(dbg.o)
 .bss           0x00000000        0x0 contiki-cc2538dk.a(dbg.o)
 .text          0x00000000        0x0 contiki-cc2538dk.a(ieee-addr.o)
 .data          0x00000000        0x0 contiki-cc2538dk.a(ieee-addr.o)
 .bss           0x00000000        0x0 contiki-cc2538dk.a(ieee-addr.o)
 .text          0x00000000        0x0 contiki-cc2538dk.a(cc2538-temp-sen)
 .data          0x00000000        0x0 contiki-cc2538dk.a(cc2538-temp-sen)
 .bss           0x00000000        0x0 contiki-cc2538dk.a(cc2538-temp-sen)
 .text          0x00000000        0x0 contiki-cc2538dk.a(vdd3-sensor.o)
 .data          0x00000000        0x0 contiki-cc2538dk.a(vdd3-sensor.o)
 .bss           0x00000000        0x0 contiki-cc2538dk.a(vdd3-sensor.o)
 .text          0x00000000        0x0 contiki-cc2538dk.a(dbg-printf.o)
 .data          0x00000000        0x0 contiki-cc2538dk.a(dbg-printf.o)
 .bss           0x00000000        0x0 contiki-cc2538dk.a(dbg-printf.o)
 .text          0x00000000        0x0 contiki-cc2538dk.a(strformat.o)
 .data          0x00000000        0x0 contiki-cc2538dk.a(strformat.o)
 .bss           0x00000000        0x0 contiki-cc2538dk.a(strformat.o)
 .text.format_str
                0x00000000       0x1a contiki-cc2538dk.a(strformat.o)
 .text          0x00000000        0x0 contiki-cc2538dk.a(autostart.o)
 .data          0x00000000        0x0 contiki-cc2538dk.a(autostart.o)
 .bss           0x00000000        0x0 contiki-cc2538dk.a(autostart.o)
 .text.autostart_exit
                0x00000000       0x12 contiki-cc2538dk.a(autostart.o)
 .text          0x00000000        0x0 contiki-cc2538dk.a(ctimer.o)
 .data          0x00000000        0x0 contiki-cc2538dk.a(ctimer.o)
 .bss           0x00000000        0x0 contiki-cc2538dk.a(ctimer.o)
 .text.ctimer_restart
                0x00000000       0x38 contiki-cc2538dk.a(ctimer.o)
 .text.ctimer_expired
                0x00000000       0x34 contiki-cc2538dk.a(ctimer.o)
 .text          0x00000000        0x0 contiki-cc2538dk.a(energest.o)
 .data          0x00000000        0x0 contiki-cc2538dk.a(energest.o)
 .bss           0x00000000        0x0 contiki-cc2538dk.a(energest.o)
 .text.energest_type_set
                0x00000000        0x2 contiki-cc2538dk.a(energest.o)
 .text.energest_type_time
                0x00000000        0x4 contiki-cc2538dk.a(energest.o)
 .text.energest_flush
                0x00000000        0x2 contiki-cc2538dk.a(energest.o)
 .text          0x00000000        0x0 contiki-cc2538dk.a(etimer.o)
 .data          0x00000000        0x0 contiki-cc2538dk.a(etimer.o)
 .bss           0x00000000        0x0 contiki-cc2538dk.a(etimer.o)
 .text.etimer_adjust
                0x00000000        0xa contiki-cc2538dk.a(etimer.o)
 .text.etimer_start_time
                0x00000000        0x4 contiki-cc2538dk.a(etimer.o)
 .text.etimer_next_expiration_time
                0x00000000       0x14 contiki-cc2538dk.a(etimer.o)
 .text          0x00000000        0x0 contiki-cc2538dk.a(process.o)
 .data          0x00000000        0x0 contiki-cc2538dk.a(process.o)
 .bss           0x00000000        0x0 contiki-cc2538dk.a(process.o)
 .text.process_exit
                0x00000000        0xc contiki-cc2538dk.a(process.o)
 .text.process_is_running
                0x00000000        0xa contiki-cc2538dk.a(process.o)
 .text          0x00000000        0x0 contiki-cc2538dk.a(rtimer.o)
 .data          0x00000000        0x0 contiki-cc2538dk.a(rtimer.o)
 .bss           0x00000000        0x0 contiki-cc2538dk.a(rtimer.o)
 .text          0x00000000        0x0 contiki-cc2538dk.a(timer.o)
 .data          0x00000000        0x0 contiki-cc2538dk.a(timer.o)
 .bss           0x00000000        0x0 contiki-cc2538dk.a(timer.o)
 .text.timer_remaining
                0x00000000       0x10 contiki-cc2538dk.a(timer.o)
 .text          0x00000000        0x0 contiki-cc2538dk.a(serial-line.o)
 .data          0x00000000        0x0 contiki-cc2538dk.a(serial-line.o)
 .bss           0x00000000        0x0 contiki-cc2538dk.a(serial-line.o)
 .text          0x00000000        0x0 contiki-cc2538dk.a(list.o)
 .data          0x00000000        0x0 contiki-cc2538dk.a(list.o)
 .bss           0x00000000        0x0 contiki-cc2538dk.a(list.o)
 .text.list_copy
                0x00000000        0x6 contiki-cc2538dk.a(list.o)
 .text.list_chop
                0x00000000       0x1e contiki-cc2538dk.a(list.o)
 .text.list_pop
                0x00000000        0xc contiki-cc2538dk.a(list.o)
 .text.list_insert
                0x00000000       0x10 contiki-cc2538dk.a(list.o)
 .text          0x00000000        0x0 contiki-cc2538dk.a(random.o)
 .data          0x00000000        0x0 contiki-cc2538dk.a(random.o)
 .bss           0x00000000        0x0 contiki-cc2538dk.a(random.o)
 .text          0x00000000        0x0 contiki-cc2538dk.a(ringbuf.o)
 .data          0x00000000        0x0 contiki-cc2538dk.a(ringbuf.o)
 .bss           0x00000000        0x0 contiki-cc2538dk.a(ringbuf.o)
 .text.ringbuf_size
                0x00000000        0x6 contiki-cc2538dk.a(ringbuf.o)
 .text.ringbuf_elements
                0x00000000        0xc contiki-cc2538dk.a(ringbuf.o)
 .text          0x00000000        0x0 contiki-cc2538dk.a(sicslowpan.o)
 .data          0x00000000        0x0 contiki-cc2538dk.a(sicslowpan.o)
 .bss           0x00000000        0x0 contiki-cc2538dk.a(sicslowpan.o)
 .text.rime_sniffer_add
                0x00000000        0xc contiki-cc2538dk.a(sicslowpan.o)
 .text.rime_sniffer_remove
                0x00000000        0xc contiki-cc2538dk.a(sicslowpan.o)
 .text.sicslowpan_get_last_rssi
                0x00000000        0xc contiki-cc2538dk.a(sicslowpan.o)
 .text          0x00000000        0x0 contiki-cc2538dk.a(uip6.o)
 .data          0x00000000        0x0 contiki-cc2538dk.a(uip6.o)
 .bss           0x00000000        0x0 contiki-cc2538dk.a(uip6.o)
 .text.uip_chksum
                0x00000000       0x14 contiki-cc2538dk.a(uip6.o)
 .text.uip_ipchksum
                0x00000000       0x20 contiki-cc2538dk.a(uip6.o)
 .text.uip_connect
                0x00000000      0x104 contiki-cc2538dk.a(uip6.o)
 .text.uip_listen
                0x00000000       0x30 contiki-cc2538dk.a(uip6.o)
 .text.uip_htons
                0x00000000        0x6 contiki-cc2538dk.a(uip6.o)
 .text.uip_send
                0x00000000       0x48 contiki-cc2538dk.a(uip6.o)
 .text          0x00000000        0x0 contiki-cc2538dk.a(uip-ds6.o)
 .data          0x00000000        0x0 contiki-cc2538dk.a(uip-ds6.o)
 .bss           0x00000000        0x0 contiki-cc2538dk.a(uip-ds6.o)
 .text.uip_ds6_prefix_rm
                0x00000000        0x8 contiki-cc2538dk.a(uip-ds6.o)
 .text.uip_ds6_prefix_lookup
                0x00000000       0x28 contiki-cc2538dk.a(uip-ds6.o)
 .text.uip_ds6_get_global
                0x00000000       0x40 contiki-cc2538dk.a(uip-ds6.o)
 .text.uip_ds6_aaddr_add
                0x00000000       0x4c contiki-cc2538dk.a(uip-ds6.o)
 .text.uip_ds6_aaddr_rm
                0x00000000        0x8 contiki-cc2538dk.a(uip-ds6.o)
 .text.uip_ds6_aaddr_lookup
                0x00000000       0x2c contiki-cc2538dk.a(uip-ds6.o)
 .bss.locaaddr  0x00000000        0x4 contiki-cc2538dk.a(uip-ds6.o)
 .text          0x00000000        0x0 contiki-cc2538dk.a(uip-ds6-nbr.o)
 .data          0x00000000        0x0 contiki-cc2538dk.a(uip-ds6-nbr.o)
 .bss           0x00000000        0x0 contiki-cc2538dk.a(uip-ds6-nbr.o)
 .text.uip_ds6_nbr_get_ipaddr
                0x00000000        0x2 contiki-cc2538dk.a(uip-ds6-nbr.o)
 .text.uip_ds6_nbr_num
                0x00000000       0x24 contiki-cc2538dk.a(uip-ds6-nbr.o)
 .text.uip_ds6_get_least_lifetime_neighbor
                0x00000000       0x48 contiki-cc2538dk.a(uip-ds6-nbr.o)
 .text          0x00000000        0x0 contiki-cc2538dk.a(uip-ds6-route.o)
 .data          0x00000000        0x0 contiki-cc2538dk.a(uip-ds6-route.o)
 .bss           0x00000000        0x0 contiki-cc2538dk.a(uip-ds6-route.o)
 .text.uip_ds6_notification_add
                0x00000000       0x18 contiki-cc2538dk.a(uip-ds6-route.o)
 .text.uip_ds6_notification_rm
                0x00000000        0xc contiki-cc2538dk.a(uip-ds6-route.o)
 .text.uip_ds6_route_num_routes
                0x00000000        0xc contiki-cc2538dk.a(uip-ds6-route.o)
 .text.uip_ds6_route_rm_by_nexthop
                0x00000000       0x1c contiki-cc2538dk.a(uip-ds6-route.o)
 .text          0x00000000        0x0 contiki-cc2538dk.a(uip-icmp6.o)
 .data          0x00000000        0x0 contiki-cc2538dk.a(uip-icmp6.o)
 .bss           0x00000000        0x0 contiki-cc2538dk.a(uip-icmp6.o)
 .text.uip_icmp6_echo_reply_callback_add
                0x00000000       0x18 contiki-cc2538dk.a(uip-icmp6.o)
 .text.uip_icmp6_echo_reply_callback_rm
                0x00000000        0xc contiki-cc2538dk.a(uip-icmp6.o)
 .text          0x00000000        0x0 contiki-cc2538dk.a(uip-nd6.o)
 .data          0x00000000        0x0 contiki-cc2538dk.a(uip-nd6.o)
 .bss           0x00000000        0x0 contiki-cc2538dk.a(uip-nd6.o)
 .text          0x00000000        0x0 contiki-cc2538dk.a(tcpip.o)
 .data          0x00000000        0x0 contiki-cc2538dk.a(tcpip.o)
 .bss           0x00000000        0x0 contiki-cc2538dk.a(tcpip.o)
 .text.tcp_unlisten
                0x00000000       0x44 contiki-cc2538dk.a(tcpip.o)
 .text.tcp_listen
                0x00000000       0x3c contiki-cc2538dk.a(tcpip.o)
 .text.tcp_attach
                0x00000000       0x10 contiki-cc2538dk.a(tcpip.o)
 .text.udp_attach
                0x00000000       0x10 contiki-cc2538dk.a(tcpip.o)
 .text.udp_broadcast_new
                0x00000000       0x40 contiki-cc2538dk.a(tcpip.o)
 .text.icmp6_new
                0x00000000       0x20 contiki-cc2538dk.a(tcpip.o)
 .text.tcpip_poll_udp
                0x00000000       0x10 contiki-cc2538dk.a(tcpip.o)
 .text.tcpip_poll_tcp
                0x00000000       0x10 contiki-cc2538dk.a(tcpip.o)
 .text.tcp_connect
                0x00000000       0x20 contiki-cc2538dk.a(tcpip.o)
 .bss.i.7726    0x00000000        0x1 contiki-cc2538dk.a(tcpip.o)
 .bss.i.7734    0x00000000        0x1 contiki-cc2538dk.a(tcpip.o)
 .text          0x00000000        0x0 contiki-cc2538dk.a(uip-debug.o)
 .data          0x00000000        0x0 contiki-cc2538dk.a(uip-debug.o)
 .bss           0x00000000        0x0 contiki-cc2538dk.a(uip-debug.o)
 .text.uip_debug_lladdr_print
                0x00000000       0x34 contiki-cc2538dk.a(uip-debug.o)
 .text          0x00000000        0x0 contiki-cc2538dk.a(rpl.o)
 .data          0x00000000        0x0 contiki-cc2538dk.a(rpl.o)
 .bss           0x00000000        0x0 contiki-cc2538dk.a(rpl.o)
 .text.rpl_set_mode
                0x00000000       0x30 contiki-cc2538dk.a(rpl.o)
 .text          0x00000000        0x0 contiki-cc2538dk.a(rpl-dag.o)
 .data          0x00000000        0x0 contiki-cc2538dk.a(rpl-dag.o)
 .bss           0x00000000        0x0 contiki-cc2538dk.a(rpl-dag.o)
 .text.rpl_print_neighbor_list
                0x00000000       0xd4 contiki-cc2538dk.a(rpl-dag.o)
 .text.rpl_get_parent_rank
                0x00000000       0x18 contiki-cc2538dk.a(rpl-dag.o)
 .text.rpl_get_parent_link_metric
                0x00000000       0x18 contiki-cc2538dk.a(rpl-dag.o)
 .text.rpl_set_default_instance
                0x00000000        0xc contiki-cc2538dk.a(rpl-dag.o)
 .text.rpl_get_default_instance
                0x00000000        0xc contiki-cc2538dk.a(rpl-dag.o)
 .text.rpl_free_instance
                0x00000000       0x60 contiki-cc2538dk.a(rpl-dag.o)
 .rodata.str1.1
                0x00000000       0x6a contiki-cc2538dk.a(rpl-dag.o)
 .text          0x00000000        0x0 contiki-cc2538dk.a(rpl-ext-header.)
 .data          0x00000000        0x0 contiki-cc2538dk.a(rpl-ext-header.)
 .bss           0x00000000        0x0 contiki-cc2538dk.a(rpl-ext-header.)
 .text.rpl_remove_header
                0x00000000       0x60 contiki-cc2538dk.a(rpl-ext-header.)
 .text          0x00000000        0x0 contiki-cc2538dk.a(rpl-icmp6.o)
 .data          0x00000000        0x0 contiki-cc2538dk.a(rpl-icmp6.o)
 .bss           0x00000000        0x0 contiki-cc2538dk.a(rpl-icmp6.o)
 .text          0x00000000        0x0 contiki-cc2538dk.a(rpl-mrhof.o)
 .data          0x00000000        0x0 contiki-cc2538dk.a(rpl-mrhof.o)
 .bss           0x00000000        0x0 contiki-cc2538dk.a(rpl-mrhof.o)
 .text          0x00000000        0x0 contiki-cc2538dk.a(rpl-timers.o)
 .data          0x00000000        0x0 contiki-cc2538dk.a(rpl-timers.o)
 .bss           0x00000000        0x0 contiki-cc2538dk.a(rpl-timers.o)
 .text.rpl_schedule_dao_immediately
                0x00000000        0x6 contiki-cc2538dk.a(rpl-timers.o)
 .text.rpl_cancel_dao
                0x00000000       0x16 contiki-cc2538dk.a(rpl-timers.o)
 .text          0x00000000        0x0 contiki-cc2538dk.a(linkaddr.o)
 .data          0x00000000        0x0 contiki-cc2538dk.a(linkaddr.o)
 .bss           0x00000000        0x0 contiki-cc2538dk.a(linkaddr.o)
 .text.linkaddr_set_node_addr
                0x00000000        0xc contiki-cc2538dk.a(linkaddr.o)
 .text          0x00000000        0x0 contiki-cc2538dk.a(nbr-table.o)
 .data          0x00000000        0x0 contiki-cc2538dk.a(nbr-table.o)
 .bss           0x00000000        0x0 contiki-cc2538dk.a(nbr-table.o)
 .text          0x00000000        0x0 contiki-cc2538dk.a(netstack.o)
 .data          0x00000000        0x0 contiki-cc2538dk.a(netstack.o)
 .bss           0x00000000        0x0 contiki-cc2538dk.a(netstack.o)
 .text          0x00000000        0x0 contiki-cc2538dk.a(packetbuf.o)
 .data          0x00000000        0x0 contiki-cc2538dk.a(packetbuf.o)
 .bss           0x00000000        0x0 contiki-cc2538dk.a(packetbuf.o)
 .text.packetbuf_clear_hdr
                0x00000000        0xc contiki-cc2538dk.a(packetbuf.o)
 .text.packetbuf_copyto_hdr
                0x00000000       0x20 contiki-cc2538dk.a(packetbuf.o)
 .text.packetbuf_hdr_remove
                0x00000000       0x10 contiki-cc2538dk.a(packetbuf.o)
 .text          0x00000000        0x0 contiki-cc2538dk.a(queuebuf.o)
 .data          0x00000000        0x0 contiki-cc2538dk.a(queuebuf.o)
 .bss           0x00000000        0x0 contiki-cc2538dk.a(queuebuf.o)
 .text.queuebuf_dataptr
                0x00000000       0x18 contiki-cc2538dk.a(queuebuf.o)
 .text.queuebuf_datalen
                0x00000000        0x8 contiki-cc2538dk.a(queuebuf.o)
 .text.queuebuf_addr
                0x00000000        0xa contiki-cc2538dk.a(queuebuf.o)
 .text.queuebuf_debug_print
                0x00000000        0x2 contiki-cc2538dk.a(queuebuf.o)
 .text          0x00000000        0x0 contiki-cc2538dk.a(csma.o)
 .data          0x00000000        0x0 contiki-cc2538dk.a(csma.o)
 .bss           0x00000000        0x0 contiki-cc2538dk.a(csma.o)
 .text          0x00000000        0x0 contiki-cc2538dk.a(framer-802154.o)
 .data          0x00000000        0x0 contiki-cc2538dk.a(framer-802154.o)
 .bss           0x00000000        0x0 contiki-cc2538dk.a(framer-802154.o)
 .text          0x00000000        0x0 contiki-cc2538dk.a(framer.o)
 .data          0x00000000        0x0 contiki-cc2538dk.a(framer.o)
 .bss           0x00000000        0x0 contiki-cc2538dk.a(framer.o)
 .text          0x00000000        0x0 contiki-cc2538dk.a(mac.o)
 .data          0x00000000        0x0 contiki-cc2538dk.a(mac.o)
 .bss           0x00000000        0x0 contiki-cc2538dk.a(mac.o)
 .text          0x00000000        0x0 contiki-cc2538dk.a(contikimac.o)
 .data          0x00000000        0x0 contiki-cc2538dk.a(contikimac.o)
 .bss           0x00000000        0x0 contiki-cc2538dk.a(contikimac.o)
 .text.contikimac_debug_print
                0x00000000        0x4 contiki-cc2538dk.a(contikimac.o)
 .text          0x00000000        0x0 contiki-cc2538dk.a(nullsec.o)
 .data          0x00000000        0x0 contiki-cc2538dk.a(nullsec.o)
 .bss           0x00000000        0x0 contiki-cc2538dk.a(nullsec.o)
 .text          0x00000000        0x0 contiki-cc2538dk.a(leds.o)
 .data          0x00000000        0x0 contiki-cc2538dk.a(leds.o)
 .bss           0x00000000        0x0 contiki-cc2538dk.a(leds.o)
 .text.leds_get
                0x00000000        0x4 contiki-cc2538dk.a(leds.o)
 .text.leds_set
                0x00000000        0xc contiki-cc2538dk.a(leds.o)
 .text.leds_toggle
                0x00000000       0x10 contiki-cc2538dk.a(leds.o)
 .text.leds_blink
                0x00000000       0x28 contiki-cc2538dk.a(leds.o)
 .text          0x00000000        0x0 contiki-cc2538dk.a(leds-arch.o)
 .data          0x00000000        0x0 contiki-cc2538dk.a(leds-arch.o)
 .bss           0x00000000        0x0 contiki-cc2538dk.a(leds-arch.o)
 .text.leds_arch_get
                0x00000000        0xc contiki-cc2538dk.a(leds-arch.o)
 .text          0x00000000        0x0 contiki-cc2538dk.a(stimer.o)
 .data          0x00000000        0x0 contiki-cc2538dk.a(stimer.o)
 .bss           0x00000000        0x0 contiki-cc2538dk.a(stimer.o)
 .text.stimer_reset
                0x00000000        0xa contiki-cc2538dk.a(stimer.o)
 .text.stimer_restart
                0x00000000        0xc contiki-cc2538dk.a(stimer.o)
 .text.stimer_remaining
                0x00000000       0x10 contiki-cc2538dk.a(stimer.o)
 .text.stimer_elapsed
                0x00000000        0xe contiki-cc2538dk.a(stimer.o)
 .text          0x00000000        0x0 contiki-cc2538dk.a(memb.o)
 .data          0x00000000        0x0 contiki-cc2538dk.a(memb.o)
 .bss           0x00000000        0x0 contiki-cc2538dk.a(memb.o)
 .text          0x00000000        0x0 contiki-cc2538dk.a(frame802154.o)
 .data          0x00000000        0x0 contiki-cc2538dk.a(frame802154.o)
 .bss           0x00000000        0x0 contiki-cc2538dk.a(frame802154.o)
 .text          0x00000000        0x0 contiki-cc2538dk.a(mac-sequence.o)
 .data          0x00000000        0x0 contiki-cc2538dk.a(mac-sequence.o)
 .bss           0x00000000        0x0 contiki-cc2538dk.a(mac-sequence.o)
 .data          0x00000000        0x0 /usr/bin/../lib/gcc/arm-none-eabi/4.9.3/armv7-m/libgcc.a(_aeabi_uldivmod.o)
 .bss           0x00000000        0x0 /usr/bin/../lib/gcc/arm-none-eabi/4.9.3/armv7-m/libgcc.a(_aeabi_uldivmod.o)
 .data          0x00000000        0x0 /usr/bin/../lib/gcc/arm-none-eabi/4.9.3/armv7-m/libgcc.a(bpabi.o)
 .bss           0x00000000        0x0 /usr/bin/../lib/gcc/arm-none-eabi/4.9.3/armv7-m/libgcc.a(bpabi.o)
 .data          0x00000000        0x0 /usr/bin/../lib/gcc/arm-none-eabi/4.9.3/armv7-m/libgcc.a(_dvmd_tls.o)
 .bss           0x00000000        0x0 /usr/bin/../lib/gcc/arm-none-eabi/4.9.3/armv7-m/libgcc.a(_dvmd_tls.o)
 .data          0x00000000        0x0 /usr/bin/../lib/gcc/arm-none-eabi/4.9.3/armv7-m/libgcc.a(_divdi3.o)
 .bss           0x00000000        0x0 /usr/bin/../lib/gcc/arm-none-eabi/4.9.3/armv7-m/libgcc.a(_divdi3.o)
 .ARM.extab     0x00000000        0x0 /usr/bin/../lib/gcc/arm-none-eabi/4.9.3/armv7-m/libgcc.a(_divdi3.o)
 .data          0x00000000        0x0 /usr/bin/../lib/gcc/arm-none-eabi/4.9.3/armv7-m/libgcc.a(_udivdi3.o)
 .bss           0x00000000        0x0 /usr/bin/../lib/gcc/arm-none-eabi/4.9.3/armv7-m/libgcc.a(_udivdi3.o)
 .ARM.extab     0x00000000        0x0 /usr/bin/../lib/gcc/arm-none-eabi/4.9.3/armv7-m/libgcc.a(_udivdi3.o)
 .text          0x00000000        0x0 /usr/bin/../lib/gcc/arm-none-eabi/4.9.3/../../../../arm-none-eabi/lib/armv7-m/libc.a(lib_a-memcmp.o)
 .data          0x00000000        0x0 /usr/bin/../lib/gcc/arm-none-eabi/4.9.3/../../../../arm-none-eabi/lib/armv7-m/libc.a(lib_a-memcmp.o)
 .bss           0x00000000        0x0 /usr/bin/../lib/gcc/arm-none-eabi/4.9.3/../../../../arm-none-eabi/lib/armv7-m/libc.a(lib_a-memcmp.o)
 .data          0x00000000        0x0 /usr/bin/../lib/gcc/arm-none-eabi/4.9.3/../../../../arm-none-eabi/lib/armv7-m/libc.a(lib_a-memcpy.o)
 .bss           0x00000000        0x0 /usr/bin/../lib/gcc/arm-none-eabi/4.9.3/../../../../arm-none-eabi/lib/armv7-m/libc.a(lib_a-memcpy.o)
 .text          0x00000000        0x0 /usr/bin/../lib/gcc/arm-none-eabi/4.9.3/../../../../arm-none-eabi/lib/armv7-m/libc.a(lib_a-memmove.o)
 .data          0x00000000        0x0 /usr/bin/../lib/gcc/arm-none-eabi/4.9.3/../../../../arm-none-eabi/lib/armv7-m/libc.a(lib_a-memmove.o)
 .bss           0x00000000        0x0 /usr/bin/../lib/gcc/arm-none-eabi/4.9.3/../../../../arm-none-eabi/lib/armv7-m/libc.a(lib_a-memmove.o)
 .text          0x00000000        0x0 /usr/bin/../lib/gcc/arm-none-eabi/4.9.3/../../../../arm-none-eabi/lib/armv7-m/libc.a(lib_a-memset.o)
 .data          0x00000000        0x0 /usr/bin/../lib/gcc/arm-none-eabi/4.9.3/../../../../arm-none-eabi/lib/armv7-m/libc.a(lib_a-memset.o)
 .bss           0x00000000        0x0 /usr/bin/../lib/gcc/arm-none-eabi/4.9.3/../../../../arm-none-eabi/lib/armv7-m/libc.a(lib_a-memset.o)
 .text          0x00000000        0x0 /usr/bin/../lib/gcc/arm-none-eabi/4.9.3/../../../../arm-none-eabi/lib/armv7-m/libc.a(lib_a-strlen.o)
 .data          0x00000000        0x0 /usr/bin/../lib/gcc/arm-none-eabi/4.9.3/../../../../arm-none-eabi/lib/armv7-m/libc.a(lib_a-strlen.o)
 .bss           0x00000000        0x0 /usr/bin/../lib/gcc/arm-none-eabi/4.9.3/../../../../arm-none-eabi/lib/armv7-m/libc.a(lib_a-strlen.o)
 .text.strlen   0x00000000       0x5c /usr/bin/../lib/gcc/arm-none-eabi/4.9.3/../../../../arm-none-eabi/lib/armv7-m/libc.a(lib_a-strlen.o)
 .debug_frame   0x00000000       0x20 /usr/bin/../lib/gcc/arm-none-eabi/4.9.3/../../../../arm-none-eabi/lib/armv7-m/libc.a(lib_a-strlen.o)
 .ARM.attributes
                0x00000000       0x2d /usr/bin/../lib/gcc/arm-none-eabi/4.9.3/../../../../arm-none-eabi/lib/armv7-m/libc.a(lib_a-strlen.o)
 .text          0x00000000        0x0 /usr/bin/../lib/gcc/arm-none-eabi/4.9.3/../../../../arm-none-eabi/lib/armv7-m/libc.a(lib_a-strncmp.o)
 .data          0x00000000        0x0 /usr/bin/../lib/gcc/arm-none-eabi/4.9.3/../../../../arm-none-eabi/lib/armv7-m/libc.a(lib_a-strncmp.o)
 .bss           0x00000000        0x0 /usr/bin/../lib/gcc/arm-none-eabi/4.9.3/../../../../arm-none-eabi/lib/armv7-m/libc.a(lib_a-strncmp.o)
 .text.strncmp  0x00000000       0x94 /usr/bin/../lib/gcc/arm-none-eabi/4.9.3/../../../../arm-none-eabi/lib/armv7-m/libc.a(lib_a-strncmp.o)
 .debug_frame   0x00000000       0x54 /usr/bin/../lib/gcc/arm-none-eabi/4.9.3/../../../../arm-none-eabi/lib/armv7-m/libc.a(lib_a-strncmp.o)
 .ARM.attributes
                0x00000000       0x2d /usr/bin/../lib/gcc/arm-none-eabi/4.9.3/../../../../arm-none-eabi/lib/armv7-m/libc.a(lib_a-strncmp.o)

Memory Configuration

Name             Origin             Length             Attributes
FLASH            0x00200000         0x0007ffd4         xr
FLASH_CCA        0x0027ffd4         0x0000002c         xr
SRAM             0x20000000         0x00008000         xrw
*default*        0x00000000         0xffffffff

Linker script and memory map

LOAD obj_cc2538dk/startup-gcc.o
LOAD udp-server.co
LOAD contiki-cc2538dk.a
START GROUP
LOAD /usr/bin/../lib/gcc/arm-none-eabi/4.9.3/armv7-m/libgcc.a
LOAD /usr/bin/../lib/gcc/arm-none-eabi/4.9.3/../../../../arm-none-eabi/lib/armv7-m/libc.a
END GROUP

.text           0x00200000     0xa8bb
                0x00200000                _text = .
 *(SORT(.vectors))
 .vectors       0x00200000      0x28c obj_cc2538dk/startup-gcc.o
                0x00200000                vectors
 *(SORT(.text*))
 .text.reset_handler
                0x0020028c       0x40 obj_cc2538dk/startup-gcc.o
                0x0020028c                reset_handler
 .text.process_thread_udp_server_process
                0x002002cc      0x1f0 udp-server.co
 .text.startup.main
                0x002004bc      0x19c contiki-cc2538dk.a(contiki-main.o)
                0x002004bc                main
 .text.process_thread_sensors_process
                0x00200658       0xd4 contiki-cc2538dk.a(sensors.o)
 .text.sensors_changed
                0x0020072c       0x38 contiki-cc2538dk.a(sensors.o)
                0x0020072c                sensors_changed
 .text.config_select
                0x00200764       0x30 contiki-cc2538dk.a(button-sensor.o)
 .text.config_left
                0x00200794       0x30 contiki-cc2538dk.a(button-sensor.o)
 .text.config_right
                0x002007c4       0x30 contiki-cc2538dk.a(button-sensor.o)
 .text.config_up
                0x002007f4       0x30 contiki-cc2538dk.a(button-sensor.o)
 .text.config_down
                0x00200824       0x30 contiki-cc2538dk.a(button-sensor.o)
 .text.btn_callback
                0x00200854       0x64 contiki-cc2538dk.a(button-sensor.o)
 .text.button_sensor_init
                0x002008b8        0xc contiki-cc2538dk.a(button-sensor.o)
                0x002008b8                button_sensor_init
 .text.value    0x002008c4       0x24 contiki-cc2538dk.a(als-sensor.o)
 .text.configure
                0x002008e8       0x54 contiki-cc2538dk.a(als-sensor.o)
 .text.update_ticks
                0x0020093c       0x4c contiki-cc2538dk.a(clock.o)
 .text.clock_init
                0x00200988       0x50 contiki-cc2538dk.a(clock.o)
                0x00200988                clock_init
 .text.clock_time
                0x002009d8       0x14 contiki-cc2538dk.a(clock.o)
                0x002009d8                clock_time
 .text.clock_seconds
                0x002009ec       0x14 contiki-cc2538dk.a(clock.o)
                0x002009ec                clock_seconds
 .text.clock_delay_usec
                0x00200a00       0x1c contiki-cc2538dk.a(clock.o)
                0x00200a00                clock_delay_usec
 .text.clock_adjust
                0x00200a1c       0x20 contiki-cc2538dk.a(clock.o)
                0x00200a1c                clock_adjust
 .text.rtimer_arch_next_trigger
                0x00200a3c        0xc contiki-cc2538dk.a(rtimer-arch.o)
                0x00200a3c                rtimer_arch_next_trigger
 .text.rtimer_arch_now
                0x00200a48       0x2c contiki-cc2538dk.a(rtimer-arch.o)
                0x00200a48                rtimer_arch_now
 .text.rtimer_arch_schedule
                0x00200a74       0x58 contiki-cc2538dk.a(rtimer-arch.o)
                0x00200a74                rtimer_arch_schedule
 .text.rtimer_isr
                0x00200acc       0x24 contiki-cc2538dk.a(rtimer-arch.o)
                0x00200acc                rtimer_isr
 .text.permit_pm1
                0x00200af0       0x2c contiki-cc2538dk.a(uart.o)
 .text.uart_isr
                0x00200b1c       0x64 contiki-cc2538dk.a(uart.o)
 .text.uart_init
                0x00200b80      0x1ac contiki-cc2538dk.a(uart.o)
                0x00200b80                uart_init
 .text.uart_set_input
                0x00200d2c       0x10 contiki-cc2538dk.a(uart.o)
                0x00200d2c                uart_set_input
 .text.uart_write_byte
                0x00200d3c       0x1c contiki-cc2538dk.a(uart.o)
                0x00200d3c                uart_write_byte
 .text.watchdog_init
                0x00200d58        0xc contiki-cc2538dk.a(watchdog.o)
                0x00200d58                watchdog_init
 .text.watchdog_start
                0x00200d64        0xc contiki-cc2538dk.a(watchdog.o)
                0x00200d64                watchdog_start
 .text.watchdog_periodic
                0x00200d70       0x10 contiki-cc2538dk.a(watchdog.o)
                0x00200d70                watchdog_periodic
 .text.nvic_init
                0x00200d80       0x3c contiki-cc2538dk.a(nvic.o)
                0x00200d80                nvic_init
 .text.nvic_interrupt_enable
                0x00200dbc       0x18 contiki-cc2538dk.a(nvic.o)
                0x00200dbc                nvic_interrupt_enable
 .text.nvic_interrupt_disable
                0x00200dd4       0x18 contiki-cc2538dk.a(nvic.o)
                0x00200dd4                nvic_interrupt_disable
 .text.nvic_interrupt_unpend
                0x00200dec       0x18 contiki-cc2538dk.a(nvic.o)
                0x00200dec                nvic_interrupt_unpend
 .text.sys_ctrl_init
                0x00200e04       0x28 contiki-cc2538dk.a(sys-ctrl.o)
                0x00200e04                sys_ctrl_init
 .text.gpio_register_callback
                0x00200e2c       0x10 contiki-cc2538dk.a(gpio.o)
                0x00200e2c                gpio_register_callback
 .text.notify   0x00200e3c       0x30 contiki-cc2538dk.a(gpio.o)
                0x00200e3c                notify
 .text.gpio_port_isr
                0x00200e6c       0x50 contiki-cc2538dk.a(gpio.o)
 .text.gpio_init
                0x00200ebc       0x10 contiki-cc2538dk.a(gpio.o)
                0x00200ebc                gpio_init
 .text.ioc_init
                0x00200ecc       0x1c contiki-cc2538dk.a(ioc.o)
                0x00200ecc                ioc_init
 .text.ioc_set_over
                0x00200ee8       0x14 contiki-cc2538dk.a(ioc.o)
                0x00200ee8                ioc_set_over
 .text.ioc_set_sel
                0x00200efc       0x14 contiki-cc2538dk.a(ioc.o)
                0x00200efc                ioc_set_sel
 .text.adc_init
                0x00200f10       0x10 contiki-cc2538dk.a(adc.o)
                0x00200f10                adc_init
 .text.adc_get  0x00200f20       0x78 contiki-cc2538dk.a(adc.o)
                0x00200f20                adc_get
 .text.crypto_isr
                0x00200f98       0x24 contiki-cc2538dk.a(crypto.o)
                0x00200f98                crypto_isr
 .text.on       0x00200fbc       0x2c contiki-cc2538dk.a(cc2538-rf.o)
 .text.off      0x00200fe8       0x38 contiki-cc2538dk.a(cc2538-rf.o)
 .text.set_channel
                0x00201020       0x48 contiki-cc2538dk.a(cc2538-rf.o)
 .text.channel_clear
                0x00201068       0x3c contiki-cc2538dk.a(cc2538-rf.o)
 .text.receiving_packet
                0x002010a4       0x18 contiki-cc2538dk.a(cc2538-rf.o)
 .text.pending_packet
                0x002010bc       0x10 contiki-cc2538dk.a(cc2538-rf.o)
 .text.get_value
                0x002010cc      0x118 contiki-cc2538dk.a(cc2538-rf.o)
 .text.prepare  0x002011e4       0x64 contiki-cc2538dk.a(cc2538-rf.o)
 .text.transmit
                0x00201248       0x8c contiki-cc2538dk.a(cc2538-rf.o)
 .text.set_frame_filtering
                0x002012d4       0x18 contiki-cc2538dk.a(cc2538-rf.o)
 .text.set_value
                0x002012ec       0xd4 contiki-cc2538dk.a(cc2538-rf.o)
 .text.get_object
                0x002013c0       0x30 contiki-cc2538dk.a(cc2538-rf.o)
 .text.set_object
                0x002013f0       0x30 contiki-cc2538dk.a(cc2538-rf.o)
 .text.read     0x00201420       0xc4 contiki-cc2538dk.a(cc2538-rf.o)
 .text.init     0x002014e4       0xcc contiki-cc2538dk.a(cc2538-rf.o)
 .text.process_thread_cc2538_rf_process
                0x002015b0       0x74 contiki-cc2538dk.a(cc2538-rf.o)
 .text.cc2538_rf_rx_tx_isr
                0x00201624       0x18 contiki-cc2538dk.a(cc2538-rf.o)
                0x00201624                cc2538_rf_rx_tx_isr
 .text.cc2538_rf_err_isr
                0x0020163c       0x28 contiki-cc2538dk.a(cc2538-rf.o)
                0x0020163c                cc2538_rf_err_isr
 .text.udma_init
                0x00201664       0x30 contiki-cc2538dk.a(udma.o)
                0x00201664                udma_init
 .text.udma_set_channel_src
                0x00201694       0x10 contiki-cc2538dk.a(udma.o)
                0x00201694                udma_set_channel_src
 .text.udma_set_channel_dst
                0x002016a4       0x14 contiki-cc2538dk.a(udma.o)
                0x002016a4                udma_set_channel_dst
 .text.udma_set_channel_control_word
                0x002016b8       0x14 contiki-cc2538dk.a(udma.o)
                0x002016b8                udma_set_channel_control_word
 .text.udma_channel_enable
                0x002016cc       0x18 contiki-cc2538dk.a(udma.o)
                0x002016cc                udma_channel_enable
 .text.udma_channel_mask_set
                0x002016e4       0x18 contiki-cc2538dk.a(udma.o)
                0x002016e4                udma_channel_mask_set
 .text.udma_channel_sw_request
                0x002016fc       0x18 contiki-cc2538dk.a(udma.o)
                0x002016fc                udma_channel_sw_request
 .text.udma_channel_get_mode
                0x00201714       0x1c contiki-cc2538dk.a(udma.o)
                0x00201714                udma_channel_get_mode
 .text.udma_isr
                0x00201730       0x10 contiki-cc2538dk.a(udma.o)
                0x00201730                udma_isr
 .text.udma_err_isr
                0x00201740        0xc contiki-cc2538dk.a(udma.o)
                0x00201740                udma_err_isr
 .text.select_32_mhz_xosc
                0x0020174c       0x2c contiki-cc2538dk.a(lpm.o)
 .text.lpm_exit
                0x00201778       0x34 contiki-cc2538dk.a(lpm.o)
                0x00201778                lpm_exit
 .text.lpm_enter
                0x002017ac       0xb0 contiki-cc2538dk.a(lpm.o)
                0x002017ac                lpm_enter
 .text.lpm_register_peripheral
                0x0020185c       0x20 contiki-cc2538dk.a(lpm.o)
                0x0020185c                lpm_register_peripheral
 .text.lpm_init
                0x0020187c       0x24 contiki-cc2538dk.a(lpm.o)
                0x0020187c                lpm_init
 .text.ieee_addr_cpy_to
                0x002018a0       0x74 contiki-cc2538dk.a(ieee-addr.o)
                0x002018a0                ieee_addr_cpy_to
 .text.printf   0x00201914       0x20 contiki-cc2538dk.a(dbg-printf.o)
                0x00201914                printf
 .text.fill_space
                0x00201934       0x34 contiki-cc2538dk.a(strformat.o)
 .text.format_str_v
                0x00201968      0x6e8 contiki-cc2538dk.a(strformat.o)
                0x00201968                format_str_v
 .text.process_thread_ctimer_process
                0x00202050       0x80 contiki-cc2538dk.a(ctimer.o)
 .text.ctimer_init
                0x002020d0       0x28 contiki-cc2538dk.a(ctimer.o)
                0x002020d0                ctimer_init
 .text.ctimer_set
                0x002020f8       0x40 contiki-cc2538dk.a(ctimer.o)
                0x002020f8                ctimer_set
 .text.ctimer_reset
                0x00202138       0x38 contiki-cc2538dk.a(ctimer.o)
                0x00202138                ctimer_reset
 .text.ctimer_stop
                0x00202170       0x2c contiki-cc2538dk.a(ctimer.o)
                0x00202170                ctimer_stop
 .text.update_time
                0x0020219c       0x44 contiki-cc2538dk.a(etimer.o)
 .text.etimer_request_poll
                0x002021e0        0xc contiki-cc2538dk.a(etimer.o)
                0x002021e0                etimer_request_poll
 .text.process_thread_etimer_process
                0x002021ec       0x94 contiki-cc2538dk.a(etimer.o)
 .text.add_timer
                0x00202280       0x40 contiki-cc2538dk.a(etimer.o)
 .text.etimer_pending
                0x002022c0       0x10 contiki-cc2538dk.a(etimer.o)
                0x002022c0                etimer_pending
 .text.etimer_stop
                0x002022d0       0x34 contiki-cc2538dk.a(etimer.o)
                0x002022d0                etimer_stop
 .text.call_process.part.0
                0x00202304       0x38 contiki-cc2538dk.a(process.o)
 .text.exit_process
                0x0020233c       0x80 contiki-cc2538dk.a(process.o)
 .text.do_poll  0x002023bc       0x30 contiki-cc2538dk.a(process.o)
 .text.process_alloc_event
                0x002023ec       0x10 contiki-cc2538dk.a(process.o)
                0x002023ec                process_alloc_event
 .text.process_init
                0x002023fc       0x30 contiki-cc2538dk.a(process.o)
                0x002023fc                process_init
 .text.process_run
                0x0020242c       0xb0 contiki-cc2538dk.a(process.o)
                0x0020242c                process_run
 .text.process_nevents
                0x002024dc       0x14 contiki-cc2538dk.a(process.o)
                0x002024dc                process_nevents
 .text.process_post
                0x002024f0       0x44 contiki-cc2538dk.a(process.o)
                0x002024f0                process_post
 .text.process_post_synch
                0x00202534       0x14 contiki-cc2538dk.a(process.o)
                0x00202534                process_post_synch
 .text.process_start
                0x00202548       0x30 contiki-cc2538dk.a(process.o)
                0x00202548                process_start
 .text.process_poll
                0x00202578       0x18 contiki-cc2538dk.a(process.o)
                0x00202578                process_poll
 .text.rtimer_set
                0x00202590       0x24 contiki-cc2538dk.a(rtimer.o)
                0x00202590                rtimer_set
 .text.rtimer_run_next
                0x002025b4       0x28 contiki-cc2538dk.a(rtimer.o)
                0x002025b4                rtimer_run_next
 .text.process_thread_serial_line_process
                0x002025dc       0x98 contiki-cc2538dk.a(serial-line.o)
 .text.serial_line_input_byte
                0x00202674       0x44 contiki-cc2538dk.a(serial-line.o)
                0x00202674                serial_line_input_byte
 .text.serial_line_init
                0x002026b8       0x24 contiki-cc2538dk.a(serial-line.o)
                0x002026b8                serial_line_init
 .text.random_rand
                0x002026dc       0x20 contiki-cc2538dk.a(random.o)
                0x002026dc                random_rand
 .text.random_init
                0x002026fc       0x78 contiki-cc2538dk.a(random.o)
                0x002026fc                random_init
 .text.sicslowpan_init
                0x00202774       0x24 contiki-cc2538dk.a(sicslowpan.o)
                0x00202774                sicslowpan_init
 .text.set_packet_attrs
                0x00202798       0x44 contiki-cc2538dk.a(sicslowpan.o)
 .text.compress_addr_64
                0x002027dc       0x90 contiki-cc2538dk.a(sicslowpan.o)
 .text.addr_context_lookup_by_prefix
                0x0020286c       0x28 contiki-cc2538dk.a(sicslowpan.o)
 .text.send_packet
                0x00202894       0x24 contiki-cc2538dk.a(sicslowpan.o)
 .text.packet_sent
                0x002028b8       0x28 contiki-cc2538dk.a(sicslowpan.o)
 .text.uncompress_addr
                0x002028e0       0xa4 contiki-cc2538dk.a(sicslowpan.o)
 .text.output   0x00202984      0x6c0 contiki-cc2538dk.a(sicslowpan.o)
 .text.input    0x00203044      0x5f8 contiki-cc2538dk.a(sicslowpan.o)
 .text.upper_layer_chksum
                0x0020363c       0x54 contiki-cc2538dk.a(uip6.o)
 .text.ext_hdr_options_process
                0x00203690       0xb0 contiki-cc2538dk.a(uip6.o)
 .text.uip_add32
                0x00203740       0x54 contiki-cc2538dk.a(uip6.o)
                0x00203740                uip_add32
 .text.unlikely.uip_add_rcv_nxt
                0x00203794       0x2c contiki-cc2538dk.a(uip6.o)
 .text.uip_init
                0x002037c0       0x6c contiki-cc2538dk.a(uip6.o)
                0x002037c0                uip_init
 .text.remove_ext_hdr
                0x0020382c       0x60 contiki-cc2538dk.a(uip6.o)
                0x0020382c                remove_ext_hdr
 .text.uip_udp_new
                0x0020388c       0xb0 contiki-cc2538dk.a(uip6.o)
                0x0020388c                uip_udp_new
 .text.uip_unlisten
                0x0020393c       0x34 contiki-cc2538dk.a(uip6.o)
                0x0020393c                uip_unlisten
 .text.uip_process
                0x00203970      0xdbc contiki-cc2538dk.a(uip6.o)
                0x00203970                uip_process
 .text.uip_ds6_prefix_add
                0x0020472c       0x64 contiki-cc2538dk.a(uip-ds6.o)
                0x0020472c                uip_ds6_prefix_add
 .text.uip_ds6_is_addr_onlink
                0x00204790       0x40 contiki-cc2538dk.a(uip-ds6.o)
                0x00204790                uip_ds6_is_addr_onlink
 .text.uip_ds6_addr_lookup
                0x002047d0       0x2c contiki-cc2538dk.a(uip-ds6.o)
                0x002047d0                uip_ds6_addr_lookup
 .text.uip_ds6_get_link_local
                0x002047fc       0x40 contiki-cc2538dk.a(uip-ds6.o)
                0x002047fc                uip_ds6_get_link_local
 .text.uip_ds6_maddr_add
                0x0020483c       0x4c contiki-cc2538dk.a(uip-ds6.o)
                0x0020483c                uip_ds6_maddr_add
 .text.uip_ds6_addr_add
                0x00204888       0x94 contiki-cc2538dk.a(uip-ds6.o)
                0x00204888                uip_ds6_addr_add
 .text.uip_ds6_maddr_lookup
                0x0020491c       0x2c contiki-cc2538dk.a(uip-ds6.o)
                0x0020491c                uip_ds6_maddr_lookup
 .text.uip_ds6_addr_rm
                0x00204948       0x44 contiki-cc2538dk.a(uip-ds6.o)
                0x00204948                uip_ds6_addr_rm
 .text.uip_ds6_periodic
                0x0020498c       0x50 contiki-cc2538dk.a(uip-ds6.o)
                0x0020498c                uip_ds6_periodic
 .text.uip_ds6_select_src
                0x002049dc       0x94 contiki-cc2538dk.a(uip-ds6.o)
                0x002049dc                uip_ds6_select_src
 .text.uip_ds6_compute_reachable_time
                0x00204a70       0x28 contiki-cc2538dk.a(uip-ds6.o)
                0x00204a70                uip_ds6_compute_reachable_time
 .text.uip_ds6_init
                0x00204a98       0xe0 contiki-cc2538dk.a(uip-ds6.o)
                0x00204a98                uip_ds6_init
 .text.uip_ds6_nbr_rm
                0x00204b78       0x20 contiki-cc2538dk.a(uip-ds6-nbr.o)
                0x00204b78                uip_ds6_nbr_rm
 .text.uip_ds6_neighbors_init
                0x00204b98       0x14 contiki-cc2538dk.a(uip-ds6-nbr.o)
                0x00204b98                uip_ds6_neighbors_init
 .text.uip_ds6_nbr_add
                0x00204bac       0x60 contiki-cc2538dk.a(uip-ds6-nbr.o)
                0x00204bac                uip_ds6_nbr_add
 .text.uip_ds6_nbr_get_ll
                0x00204c0c       0x10 contiki-cc2538dk.a(uip-ds6-nbr.o)
                0x00204c0c                uip_ds6_nbr_get_ll
 .text.uip_ds6_nbr_lookup
                0x00204c1c       0x38 contiki-cc2538dk.a(uip-ds6-nbr.o)
                0x00204c1c                uip_ds6_nbr_lookup
 .text.uip_ds6_nbr_ll_lookup
                0x00204c54       0x10 contiki-cc2538dk.a(uip-ds6-nbr.o)
                0x00204c54                uip_ds6_nbr_ll_lookup
 .text.uip_ds6_link_neighbor_callback
                0x00204c64       0x2c contiki-cc2538dk.a(uip-ds6-nbr.o)
                0x00204c64                uip_ds6_link_neighbor_callback
 .text.uip_ds6_neighbor_periodic
                0x00204c90      0x10c contiki-cc2538dk.a(uip-ds6-nbr.o)
                0x00204c90                uip_ds6_neighbor_periodic
 .text.call_route_callback
                0x00204d9c       0x48 contiki-cc2538dk.a(uip-ds6-route.o)
 .text.uip_ds6_route_init
                0x00204de4       0x48 contiki-cc2538dk.a(uip-ds6-route.o)
                0x00204de4                uip_ds6_route_init
 .text.uip_ds6_route_nexthop
                0x00204e2c       0x1c contiki-cc2538dk.a(uip-ds6-route.o)
                0x00204e2c                uip_ds6_route_nexthop
 .text.uip_ds6_route_head
                0x00204e48        0xc contiki-cc2538dk.a(uip-ds6-route.o)
                0x00204e48                uip_ds6_route_head
 .text.uip_ds6_route_lookup
                0x00204e54       0x64 contiki-cc2538dk.a(uip-ds6-route.o)
                0x00204e54                uip_ds6_route_lookup
 .text.uip_ds6_route_rm
                0x00204eb8       0x9c contiki-cc2538dk.a(uip-ds6-route.o)
                0x00204eb8                uip_ds6_route_rm
 .text.rm_routelist
                0x00204f54       0x2c contiki-cc2538dk.a(uip-ds6-route.o)
 .text.uip_ds6_route_add
                0x00204f80       0xfc contiki-cc2538dk.a(uip-ds6-route.o)
                0x00204f80                uip_ds6_route_add
 .text.uip_ds6_defrt_rm
                0x0020507c       0x44 contiki-cc2538dk.a(uip-ds6-route.o)
                0x0020507c                uip_ds6_defrt_rm
 .text.uip_ds6_defrt_lookup
                0x002050c0       0x2c contiki-cc2538dk.a(uip-ds6-route.o)
                0x002050c0                uip_ds6_defrt_lookup
 .text.uip_ds6_defrt_add
                0x002050ec       0x64 contiki-cc2538dk.a(uip-ds6-route.o)
                0x002050ec                uip_ds6_defrt_add
 .text.uip_ds6_defrt_choose
                0x00205150       0x30 contiki-cc2538dk.a(uip-ds6-route.o)
                0x00205150                uip_ds6_defrt_choose
 .text.uip_ds6_defrt_periodic
                0x00205180       0x30 contiki-cc2538dk.a(uip-ds6-route.o)
                0x00205180                uip_ds6_defrt_periodic
 .text.echo_reply_input
                0x002051b0       0xe4 contiki-cc2538dk.a(uip-icmp6.o)
 .text.echo_request_input
                0x00205294      0x100 contiki-cc2538dk.a(uip-icmp6.o)
 .text.uip_icmp6_input
                0x00205394       0x38 contiki-cc2538dk.a(uip-icmp6.o)
                0x00205394                uip_icmp6_input
 .text.uip_icmp6_register_input_handler
                0x002053cc        0xc contiki-cc2538dk.a(uip-icmp6.o)
                0x002053cc                uip_icmp6_register_input_handler
 .text.uip_icmp6_error_output
                0x002053d8      0x144 contiki-cc2538dk.a(uip-icmp6.o)
                0x002053d8                uip_icmp6_error_output
 .text.uip_icmp6_send
                0x0020551c       0x8c contiki-cc2538dk.a(uip-icmp6.o)
                0x0020551c                uip_icmp6_send
 .text.uip_icmp6_init
                0x002055a8       0x1c contiki-cc2538dk.a(uip-icmp6.o)
                0x002055a8                uip_icmp6_init
 .text.na_input
                0x002055c4      0x1c8 contiki-cc2538dk.a(uip-nd6.o)
 .text.ns_input
                0x0020578c      0x254 contiki-cc2538dk.a(uip-nd6.o)
 .text.uip_nd6_ns_output
                0x002059e0      0x164 contiki-cc2538dk.a(uip-nd6.o)
                0x002059e0                uip_nd6_ns_output
 .text.uip_nd6_init
                0x00205b44       0x1c contiki-cc2538dk.a(uip-nd6.o)
                0x00205b44                uip_nd6_init
 .text.start_periodic_tcp_timer
                0x00205b60       0x1c contiki-cc2538dk.a(tcpip.o)
 .text.tcpip_output
                0x00205b7c       0x10 contiki-cc2538dk.a(tcpip.o)
                0x00205b7c                tcpip_output
 .text.tcpip_set_outputfunc
                0x00205b8c        0xc contiki-cc2538dk.a(tcpip.o)
                0x00205b8c                tcpip_set_outputfunc
 .text.udp_new  0x00205b98       0x18 contiki-cc2538dk.a(tcpip.o)
                0x00205b98                udp_new
 .text.tcpip_icmp6_call
                0x00205bb0       0x28 contiki-cc2538dk.a(tcpip.o)
                0x00205bb0                tcpip_icmp6_call
 .text.tcpip_input
                0x00205bd8       0x24 contiki-cc2538dk.a(tcpip.o)
                0x00205bd8                tcpip_input
 .text.tcpip_ipv6_output
                0x00205bfc      0x120 contiki-cc2538dk.a(tcpip.o)
                0x00205bfc                tcpip_ipv6_output
 .text.process_thread_tcpip_process
                0x00205d1c      0x1e0 contiki-cc2538dk.a(tcpip.o)
 .text.tcpip_uipcall
                0x00205efc       0x7c contiki-cc2538dk.a(tcpip.o)
                0x00205efc                tcpip_uipcall
 .text.uip_debug_ipaddr_print
                0x00205f78       0x64 contiki-cc2538dk.a(uip-debug.o)
                0x00205f78                uip_debug_ipaddr_print
 .text.rpl_get_mode
                0x00205fdc        0xc contiki-cc2538dk.a(rpl.o)
                0x00205fdc                rpl_get_mode
 .text.rpl_purge_routes
                0x00205fe8       0x64 contiki-cc2538dk.a(rpl.o)
                0x00205fe8                rpl_purge_routes
 .text.rpl_link_neighbor_callback
                0x0020604c       0x70 contiki-cc2538dk.a(rpl.o)
                0x0020604c                rpl_link_neighbor_callback
 .text.rpl_ipv6_neighbor_callback
                0x002060bc       0x28 contiki-cc2538dk.a(rpl.o)
                0x002060bc                rpl_ipv6_neighbor_callback
 .text.rpl_init
                0x002060e4       0x58 contiki-cc2538dk.a(rpl.o)
                0x002060e4                rpl_init
 .text.rpl_set_preferred_parent
                0x0020613c       0x28 contiki-cc2538dk.a(rpl-dag.o)
 .text.set_ip_from_prefix
                0x00206164       0x2c contiki-cc2538dk.a(rpl-dag.o)
 .text.find_parent_any_dag_any_instance
                0x00206190       0x1c contiki-cc2538dk.a(rpl-dag.o)
 .text.rpl_get_nbr
                0x002061ac       0x28 contiki-cc2538dk.a(rpl-dag.o)
                0x002061ac                rpl_get_nbr
 .text.rpl_dag_init
                0x002061d4       0x14 contiki-cc2538dk.a(rpl-dag.o)
                0x002061d4                rpl_dag_init
 .text.rpl_get_parent
                0x002061e8       0x10 contiki-cc2538dk.a(rpl-dag.o)
                0x002061e8                rpl_get_parent
 .text.rpl_get_parent_ipaddr
                0x002061f8       0x18 contiki-cc2538dk.a(rpl-dag.o)
                0x002061f8                rpl_get_parent_ipaddr
 .text.rpl_alloc_instance
                0x00206210       0x34 contiki-cc2538dk.a(rpl-dag.o)
                0x00206210                rpl_alloc_instance
 .text.rpl_add_parent
                0x00206244       0x44 contiki-cc2538dk.a(rpl-dag.o)
                0x00206244                rpl_add_parent
 .text.rpl_select_parent
                0x00206288       0x6c contiki-cc2538dk.a(rpl-dag.o)
                0x00206288                rpl_select_parent
 .text.rpl_remove_parent
                0x002062f4       0x1c contiki-cc2538dk.a(rpl-dag.o)
                0x002062f4                rpl_remove_parent
 .text.remove_parents.constprop.4
                0x00206310       0x2c contiki-cc2538dk.a(rpl-dag.o)
 .text.rpl_get_any_dag
                0x0020633c       0x18 contiki-cc2538dk.a(rpl-dag.o)
                0x0020633c                rpl_get_any_dag
 .text.rpl_get_instance
                0x00206354       0x20 contiki-cc2538dk.a(rpl-dag.o)
                0x00206354                rpl_get_instance
 .text.rpl_set_root
                0x00206374      0x108 contiki-cc2538dk.a(rpl-dag.o)
                0x00206374                rpl_set_root
 .text.rpl_find_of
                0x0020647c       0x14 contiki-cc2538dk.a(rpl-dag.o)
                0x0020647c                rpl_find_of
 .text.rpl_join_instance
                0x00206490      0x124 contiki-cc2538dk.a(rpl-dag.o)
                0x00206490                rpl_join_instance
 .text.rpl_local_repair
                0x002065b4       0x58 contiki-cc2538dk.a(rpl-dag.o)
                0x002065b4                rpl_local_repair
 .text.rpl_recalculate_ranks
                0x0020660c       0x3c contiki-cc2538dk.a(rpl-dag.o)
                0x0020660c                rpl_recalculate_ranks
 .text.rpl_lock_parent
                0x00206648       0x10 contiki-cc2538dk.a(rpl-dag.o)
                0x00206648                rpl_lock_parent
 .text.rpl_verify_header
                0x00206658       0x9c contiki-cc2538dk.a(rpl-ext-header.)
                0x00206658                rpl_verify_header
 .text.rpl_update_header_empty
                0x002066f4      0x13c contiki-cc2538dk.a(rpl-ext-header.)
                0x002066f4                rpl_update_header_empty
 .text.rpl_update_header_final
                0x00206830       0x88 contiki-cc2538dk.a(rpl-ext-header.)
                0x00206830                rpl_update_header_final
 .text.rpl_invert_header
                0x002068b8       0x68 contiki-cc2538dk.a(rpl-ext-header.)
                0x002068b8                rpl_invert_header
 .text.rpl_insert_header
                0x00206920       0x1c contiki-cc2538dk.a(rpl-ext-header.)
                0x00206920                rpl_insert_header
 .text.dao_ack_input
                0x0020693c        0xc contiki-cc2538dk.a(rpl-icmp6.o)
 .text.dio_input
                0x00206948      0x280 contiki-cc2538dk.a(rpl-icmp6.o)
 .text.dis_output
                0x00206bc8       0x54 contiki-cc2538dk.a(rpl-icmp6.o)
                0x00206bc8                dis_output
 .text.dio_output
                0x00206c1c      0x20c contiki-cc2538dk.a(rpl-icmp6.o)
                0x00206c1c                dio_output
 .text.dis_input
                0x00206e28       0x34 contiki-cc2538dk.a(rpl-icmp6.o)
 .text.dao_output_target
                0x00206e5c       0xe0 contiki-cc2538dk.a(rpl-icmp6.o)
                0x00206e5c                dao_output_target
 .text.dao_output
                0x00206f3c       0x64 contiki-cc2538dk.a(rpl-icmp6.o)
                0x00206f3c                dao_output
 .text.dao_ack_output
                0x00206fa0       0x34 contiki-cc2538dk.a(rpl-icmp6.o)
                0x00206fa0                dao_ack_output
 .text.dao_input
                0x00206fd4      0x224 contiki-cc2538dk.a(rpl-icmp6.o)
 .text.rpl_icmp6_register_handlers
                0x002071f8       0x30 contiki-cc2538dk.a(rpl-icmp6.o)
                0x002071f8                rpl_icmp6_register_handlers
 .text.new_dio_interval
                0x00207228       0x58 contiki-cc2538dk.a(rpl-timers.o)
 .text.handle_periodic_timer
                0x00207280       0x38 contiki-cc2538dk.a(rpl-timers.o)
 .text.set_dao_lifetime_timer
                0x002072b8       0x3c contiki-cc2538dk.a(rpl-timers.o)
 .text.handle_dio_timer
                0x002072f4       0x80 contiki-cc2538dk.a(rpl-timers.o)
 .text.schedule_dao
                0x00207374       0x54 contiki-cc2538dk.a(rpl-timers.o)
 .text.handle_dao_timer
                0x002073c8       0x58 contiki-cc2538dk.a(rpl-timers.o)
 .text.rpl_reset_periodic_timer
                0x00207420       0x34 contiki-cc2538dk.a(rpl-timers.o)
                0x00207420                rpl_reset_periodic_timer
 .text.rpl_schedule_probing
                0x00207454       0x30 contiki-cc2538dk.a(rpl-timers.o)
                0x00207454                rpl_schedule_probing
 .text.handle_probing_timer
                0x00207484       0xd4 contiki-cc2538dk.a(rpl-timers.o)
 .text.index_from_key
                0x00207558       0x20 contiki-cc2538dk.a(nbr-table.o)
 .text.index_from_lladdr
                0x00207578       0x40 contiki-cc2538dk.a(nbr-table.o)
 .text.key_from_item
                0x002075b8       0x2c contiki-cc2538dk.a(nbr-table.o)
 .text.nbr_get_bit.constprop.0
                0x002075e4       0x30 contiki-cc2538dk.a(nbr-table.o)
 .text.nbr_table_register
                0x00207614       0x28 contiki-cc2538dk.a(nbr-table.o)
                0x00207614                nbr_table_register
 .text.nbr_table_head
                0x0020763c       0x34 contiki-cc2538dk.a(nbr-table.o)
                0x0020763c                nbr_table_head
 .text.nbr_table_add_lladdr
                0x00207670      0x11c contiki-cc2538dk.a(nbr-table.o)
                0x00207670                nbr_table_add_lladdr
 .text.nbr_table_remove
                0x0020778c       0x2c contiki-cc2538dk.a(nbr-table.o)
                0x0020778c                nbr_table_remove
 .text.nbr_table_lock
                0x002077b8       0x14 contiki-cc2538dk.a(nbr-table.o)
                0x002077b8                nbr_table_lock
 .text.nbr_table_unlock
                0x002077cc       0x14 contiki-cc2538dk.a(nbr-table.o)
                0x002077cc                nbr_table_unlock
 .text.netstack_init
                0x002077e0       0x30 contiki-cc2538dk.a(netstack.o)
                0x002077e0                netstack_init
 .text.packetbuf_compact
                0x00207810       0x34 contiki-cc2538dk.a(packetbuf.o)
                0x00207810                packetbuf_compact
 .text.packetbuf_copyto
                0x00207844       0x50 contiki-cc2538dk.a(packetbuf.o)
                0x00207844                packetbuf_copyto
 .text.packetbuf_hdrreduce
                0x00207894       0x2c contiki-cc2538dk.a(packetbuf.o)
                0x00207894                packetbuf_hdrreduce
 .text.packetbuf_set_datalen
                0x002078c0        0xc contiki-cc2538dk.a(packetbuf.o)
                0x002078c0                packetbuf_set_datalen
 .text.packetbuf_dataptr
                0x002078cc       0x14 contiki-cc2538dk.a(packetbuf.o)
                0x002078cc                packetbuf_dataptr
 .text.packetbuf_hdrptr
                0x002078e0       0x14 contiki-cc2538dk.a(packetbuf.o)
                0x002078e0                packetbuf_hdrptr
 .text.packetbuf_datalen
                0x002078f4        0xc contiki-cc2538dk.a(packetbuf.o)
                0x002078f4                packetbuf_datalen
 .text.packetbuf_hdrlen
                0x00207900       0x1c contiki-cc2538dk.a(packetbuf.o)
                0x00207900                packetbuf_hdrlen
 .text.packetbuf_totlen
                0x0020791c       0x14 contiki-cc2538dk.a(packetbuf.o)
                0x0020791c                packetbuf_totlen
 .text.packetbuf_hdralloc
                0x00207930       0x28 contiki-cc2538dk.a(packetbuf.o)
                0x00207930                packetbuf_hdralloc
 .text.packetbuf_attr_clear
                0x00207958       0x38 contiki-cc2538dk.a(packetbuf.o)
                0x00207958                packetbuf_attr_clear
 .text.packetbuf_clear
                0x00207990       0x30 contiki-cc2538dk.a(packetbuf.o)
                0x00207990                packetbuf_clear
 .text.packetbuf_copyfrom
                0x002079c0       0x2c contiki-cc2538dk.a(packetbuf.o)
                0x002079c0                packetbuf_copyfrom
 .text.packetbuf_attr_copyto
                0x002079ec       0x34 contiki-cc2538dk.a(packetbuf.o)
                0x002079ec                packetbuf_attr_copyto
 .text.packetbuf_attr_copyfrom
                0x00207a20       0x34 contiki-cc2538dk.a(packetbuf.o)
                0x00207a20                packetbuf_attr_copyfrom
 .text.packetbuf_set_attr
                0x00207a54       0x10 contiki-cc2538dk.a(packetbuf.o)
                0x00207a54                packetbuf_set_attr
 .text.packetbuf_attr
                0x00207a64        0xc contiki-cc2538dk.a(packetbuf.o)
                0x00207a64                packetbuf_attr
 .text.packetbuf_set_addr
                0x00207a70       0x18 contiki-cc2538dk.a(packetbuf.o)
                0x00207a70                packetbuf_set_addr
 .text.packetbuf_addr
                0x00207a88       0x10 contiki-cc2538dk.a(packetbuf.o)
                0x00207a88                packetbuf_addr
 .text.packetbuf_holds_broadcast
                0x00207a98       0x10 contiki-cc2538dk.a(packetbuf.o)
                0x00207a98                packetbuf_holds_broadcast
 .text.queuebuf_init
                0x00207aa8       0x1c contiki-cc2538dk.a(queuebuf.o)
                0x00207aa8                queuebuf_init
 .text.queuebuf_numfree
                0x00207ac4        0xc contiki-cc2538dk.a(queuebuf.o)
                0x00207ac4                queuebuf_numfree
 .text.queuebuf_new_from_packetbuf
                0x00207ad0       0x44 contiki-cc2538dk.a(queuebuf.o)
                0x00207ad0                queuebuf_new_from_packetbuf
 .text.queuebuf_free
                0x00207b14       0x2c contiki-cc2538dk.a(queuebuf.o)
                0x00207b14                queuebuf_free
 .text.queuebuf_to_packetbuf
                0x00207b40       0x30 contiki-cc2538dk.a(queuebuf.o)
                0x00207b40                queuebuf_to_packetbuf
 .text.input_packet
                0x00207b70        0xc contiki-cc2538dk.a(csma.o)
 .text.on       0x00207b7c        0xc contiki-cc2538dk.a(csma.o)
 .text.off      0x00207b88        0xc contiki-cc2538dk.a(csma.o)
 .text.channel_check_interval
                0x00207b94       0x10 contiki-cc2538dk.a(csma.o)
 .text.transmit_packet_list
                0x00207ba4       0x30 contiki-cc2538dk.a(csma.o)
 .text.send_packet
                0x00207bd4      0x148 contiki-cc2538dk.a(csma.o)
 .text.init     0x00207d1c       0x24 contiki-cc2538dk.a(csma.o)
 .text.free_packet
                0x00207d40       0x90 contiki-cc2538dk.a(csma.o)
 .text.packet_sent
                0x00207dd0       0xf8 contiki-cc2538dk.a(csma.o)
 .text.create_frame.isra.0
                0x00207ec8      0x110 contiki-cc2538dk.a(framer-802154.o)
 .text.framer_canonical_create_and_secure
                0x00207fd8       0x30 contiki-cc2538dk.a(framer.o)
                0x00207fd8                framer_canonical_create_and_secure
 .text.init     0x00208008       0x40 contiki-cc2538dk.a(contikimac.o)
 .text.on       0x00208048       0x2c contiki-cc2538dk.a(contikimac.o)
 .text.off      0x00208074       0x38 contiki-cc2538dk.a(contikimac.o)
 .text.recv_burst_off
                0x002080ac       0x14 contiki-cc2538dk.a(contikimac.o)
 .text.powercycle_turn_radio_off
                0x002080c0       0x1c contiki-cc2538dk.a(contikimac.o)
 .text.turn_off
                0x002080dc       0x38 contiki-cc2538dk.a(contikimac.o)
 .text.turn_on  0x00208114       0x40 contiki-cc2538dk.a(contikimac.o)
 .text.schedule_powercycle_fixed
                0x00208154       0x38 contiki-cc2538dk.a(contikimac.o)
 .text.input_packet
                0x0020818c       0xa8 contiki-cc2538dk.a(contikimac.o)
 .text.send_packet.isra.7
                0x00208234      0x1f8 contiki-cc2538dk.a(contikimac.o)
 .text.qsend_list
                0x0020842c       0xc0 contiki-cc2538dk.a(contikimac.o)
 .text.powercycle
                0x002084ec      0x20c contiki-cc2538dk.a(contikimac.o)
 .text.input    0x002086f8        0xc contiki-cc2538dk.a(nullsec.o)
 .text.send     0x00208704       0x20 contiki-cc2538dk.a(nullsec.o)
 .text.leds_init
                0x00208724       0x14 contiki-cc2538dk.a(leds.o)
                0x00208724                leds_init
 .text.leds_on  0x00208738       0x10 contiki-cc2538dk.a(leds.o)
                0x00208738                leds_on
 .text.leds_off
                0x00208748       0x14 contiki-cc2538dk.a(leds.o)
                0x00208748                leds_off
 .text.leds_arch_init
                0x0020875c       0x10 contiki-cc2538dk.a(leds-arch.o)
                0x0020875c                leds_arch_init
 .text.leds_arch_set
                0x0020876c        0xc contiki-cc2538dk.a(leds-arch.o)
                0x0020876c                leds_arch_set
 .text.stimer_expired
                0x00208778       0x20 contiki-cc2538dk.a(stimer.o)
                0x00208778                stimer_expired
 .text.frame802154_parse
                0x00208798      0x120 contiki-cc2538dk.a(frame802154.o)
                0x00208798                frame802154_parse
 .text.mac_sequence_is_duplicate
                0x002088b8       0x38 contiki-cc2538dk.a(mac-sequence.o)
                0x002088b8                mac_sequence_is_duplicate
 .text.mac_sequence_register_seqno
                0x002088f0       0x64 contiki-cc2538dk.a(mac-sequence.o)
                0x002088f0                mac_sequence_register_seqno
 .text          0x00208954       0x30 /usr/bin/../lib/gcc/arm-none-eabi/4.9.3/armv7-m/libgcc.a(_aeabi_uldivmod.o)
                0x00208954                __aeabi_uldivmod
 .text          0x00208984       0x60 /usr/bin/../lib/gcc/arm-none-eabi/4.9.3/armv7-m/libgcc.a(bpabi.o)
                0x00208984                __gnu_ldivmod_helper
                0x002089b4                __gnu_uldivmod_helper
 .text          0x002089e4        0x4 /usr/bin/../lib/gcc/arm-none-eabi/4.9.3/armv7-m/libgcc.a(_dvmd_tls.o)
                0x002089e4                __aeabi_ldiv0
                0x002089e4                __aeabi_idiv0
 .text          0x002089e8      0x2ac /usr/bin/../lib/gcc/arm-none-eabi/4.9.3/armv7-m/libgcc.a(_divdi3.o)
                0x002089e8                __divdi3
 .text          0x00208c94      0x270 /usr/bin/../lib/gcc/arm-none-eabi/4.9.3/armv7-m/libgcc.a(_udivdi3.o)
                0x00208c94                __udivdi3
 .text.memcmp   0x00208f04       0x64 /usr/bin/../lib/gcc/arm-none-eabi/4.9.3/../../../../arm-none-eabi/lib/armv7-m/libc.a(lib_a-memcmp.o)
                0x00208f04                memcmp
 .text          0x00208f68       0xec /usr/bin/../lib/gcc/arm-none-eabi/4.9.3/../../../../arm-none-eabi/lib/armv7-m/libc.a(lib_a-memcpy.o)
                0x00208f68                memcpy
 .text.memmove  0x00209054       0xc8 /usr/bin/../lib/gcc/arm-none-eabi/4.9.3/../../../../arm-none-eabi/lib/armv7-m/libc.a(lib_a-memmove.o)
                0x00209054                memmove
 .text.memset   0x0020911c       0x9c /usr/bin/../lib/gcc/arm-none-eabi/4.9.3/../../../../arm-none-eabi/lib/armv7-m/libc.a(lib_a-memset.o)
                0x0020911c                memset
 .text.default_handler
                0x002091b8        0x2 obj_cc2538dk/startup-gcc.o
                0x002091b8                default_handler
                0x002091b8                usb_isr
 .text.nmi_handler
                0x002091ba        0x6 obj_cc2538dk/startup-gcc.o
                0x002091ba                nmi_handler
 .text.fade     0x002091c0       0x54 contiki-cc2538dk.a(contiki-main.o)
 .text.config   0x00209214       0x40 contiki-cc2538dk.a(button-sensor.o)
 .text.status   0x00209254        0x4 contiki-cc2538dk.a(als-sensor.o)
 .text.clock_isr
                0x00209258        0x4 contiki-cc2538dk.a(clock.o)
                0x00209258                clock_isr
 .text.rtimer_arch_init
                0x0020925c        0x2 contiki-cc2538dk.a(rtimer-arch.o)
                0x0020925c                rtimer_arch_init
 .text.uart0_isr
                0x0020925e        0x6 contiki-cc2538dk.a(uart.o)
                0x0020925e                uart0_isr
 .text.uart1_isr
                0x00209264        0x6 contiki-cc2538dk.a(uart.o)
                0x00209264                uart1_isr
 .text.cpu_cpsie
                0x0020926a        0x8 contiki-cc2538dk.a(cpu.o)
                0x0020926a                cpu_cpsie
 .text.cpu_cpsid
                0x00209272        0x8 contiki-cc2538dk.a(cpu.o)
                0x00209272                cpu_cpsid
 .text.gpio_port_a_isr
                0x0020927a        0x6 contiki-cc2538dk.a(gpio.o)
                0x0020927a                gpio_port_a_isr
 .text.gpio_port_b_isr
                0x00209280        0x6 contiki-cc2538dk.a(gpio.o)
                0x00209280                gpio_port_b_isr
 .text.gpio_port_c_isr
                0x00209286        0x6 contiki-cc2538dk.a(gpio.o)
                0x00209286                gpio_port_c_isr
 .text.gpio_port_d_isr
                0x0020928c        0x6 contiki-cc2538dk.a(gpio.o)
                0x0020928c                gpio_port_d_isr
 .text.send     0x00209292       0x12 contiki-cc2538dk.a(cc2538-rf.o)
 .text.putchar  0x002092a4       0x10 contiki-cc2538dk.a(dbg.o)
                0x002092a4                putchar
 .text.dbg_send_bytes
                0x002092b4       0x20 contiki-cc2538dk.a(dbg.o)
                0x002092b4                dbg_send_bytes
 .text.puts     0x002092d4       0x20 contiki-cc2538dk.a(dbg.o)
                0x002092d4                puts
 .text.configure
                0x002092f4        0x4 contiki-cc2538dk.a(cc2538-temp-sen)
 .text.status   0x002092f8        0x4 contiki-cc2538dk.a(cc2538-temp-sen)
 .text.value    0x002092fc       0x34 contiki-cc2538dk.a(cc2538-temp-sen)
 .text.configure
                0x00209330        0x4 contiki-cc2538dk.a(vdd3-sensor.o)
 .text.status   0x00209334        0x4 contiki-cc2538dk.a(vdd3-sensor.o)
 .text.value    0x00209338       0x2a contiki-cc2538dk.a(vdd3-sensor.o)
 .text.write_str
                0x00209362       0x10 contiki-cc2538dk.a(dbg-printf.o)
 .text.autostart_start
                0x00209372       0x14 contiki-cc2538dk.a(autostart.o)
                0x00209372                autostart_start
 .text.energest_init
                0x00209386        0x2 contiki-cc2538dk.a(energest.o)
                0x00209386                energest_init
 .text.etimer_set
                0x00209388       0x12 contiki-cc2538dk.a(etimer.o)
                0x00209388                etimer_set
 .text.etimer_reset
                0x0020939a       0x12 contiki-cc2538dk.a(etimer.o)
                0x0020939a                etimer_reset
 .text.etimer_restart
                0x002093ac       0x12 contiki-cc2538dk.a(etimer.o)
                0x002093ac                etimer_restart
 .text.etimer_expired
                0x002093be        0xa contiki-cc2538dk.a(etimer.o)
                0x002093be                etimer_expired
 .text.etimer_expiration_time
                0x002093c8        0x6 contiki-cc2538dk.a(etimer.o)
                0x002093c8                etimer_expiration_time
 .text.call_process
                0x002093ce        0xc contiki-cc2538dk.a(process.o)
 .text.rtimer_init
                0x002093da        0x4 contiki-cc2538dk.a(rtimer.o)
                0x002093da                rtimer_init
 .text.timer_set
                0x002093de        0xe contiki-cc2538dk.a(timer.o)
                0x002093de                timer_set
 .text.timer_reset
                0x002093ec        0xa contiki-cc2538dk.a(timer.o)
                0x002093ec                timer_reset
 .text.timer_restart
                0x002093f6        0xc contiki-cc2538dk.a(timer.o)
                0x002093f6                timer_restart
 .text.timer_expired
                0x00209402       0x1c contiki-cc2538dk.a(timer.o)
                0x00209402                timer_expired
 .text.list_init
                0x0020941e        0x6 contiki-cc2538dk.a(list.o)
                0x0020941e                list_init
 .text.list_head
                0x00209424        0x4 contiki-cc2538dk.a(list.o)
                0x00209424                list_head
 .text.list_tail
                0x00209428       0x10 contiki-cc2538dk.a(list.o)
                0x00209428                list_tail
 .text.list_remove
                0x00209438       0x28 contiki-cc2538dk.a(list.o)
                0x00209438                list_remove
 .text.list_add
                0x00209460       0x1e contiki-cc2538dk.a(list.o)
                0x00209460                list_add
 .text.list_push
                0x0020947e       0x12 contiki-cc2538dk.a(list.o)
                0x0020947e                list_push
 .text.list_length
                0x00209490        0xe contiki-cc2538dk.a(list.o)
                0x00209490                list_length
 .text.list_item_next
                0x0020949e        0x6 contiki-cc2538dk.a(list.o)
                0x0020949e                list_item_next
 .text.ringbuf_init
                0x002094a4        0xe contiki-cc2538dk.a(ringbuf.o)
                0x002094a4                ringbuf_init
 .text.ringbuf_put
                0x002094b2       0x28 contiki-cc2538dk.a(ringbuf.o)
                0x002094b2                ringbuf_put
 .text.ringbuf_get
                0x002094da       0x20 contiki-cc2538dk.a(ringbuf.o)
                0x002094da                ringbuf_get
 .text.chksum   0x002094fa       0x38 contiki-cc2538dk.a(uip6.o)
 .text.uip_icmp6chksum
                0x00209532        0x6 contiki-cc2538dk.a(uip6.o)
                0x00209532                uip_icmp6chksum
 .text.uip_tcpchksum
                0x00209538        0x6 contiki-cc2538dk.a(uip6.o)
                0x00209538                uip_tcpchksum
 .text.uip_udpchksum
                0x0020953e        0x6 contiki-cc2538dk.a(uip6.o)
                0x0020953e                uip_udpchksum
 .text.uip_htonl
                0x00209544       0x14 contiki-cc2538dk.a(uip6.o)
                0x00209544                uip_htonl
 .text.uip_ds6_list_loop
                0x00209558       0x48 contiki-cc2538dk.a(uip-ds6.o)
                0x00209558                uip_ds6_list_loop
 .text.uip_ds6_maddr_rm
                0x002095a0        0x8 contiki-cc2538dk.a(uip-ds6.o)
                0x002095a0                uip_ds6_maddr_rm
 .text.uip_ds6_set_addr_iid
                0x002095a8       0x12 contiki-cc2538dk.a(uip-ds6.o)
                0x002095a8                uip_ds6_set_addr_iid
 .text.get_match_length
                0x002095ba       0x3a contiki-cc2538dk.a(uip-ds6.o)
                0x002095ba                get_match_length
 .text.uip_ds6_nbr_ipaddr_from_lladdr
                0x002095f4        0x4 contiki-cc2538dk.a(uip-ds6-nbr.o)
                0x002095f4                uip_ds6_nbr_ipaddr_from_lladdr
 .text.uip_ds6_nbr_lladdr_from_ipaddr
                0x002095f8       0x12 contiki-cc2538dk.a(uip-ds6-nbr.o)
                0x002095f8                uip_ds6_nbr_lladdr_from_ipaddr
 .text.uip_ds6_route_next
                0x0020960a        0x8 contiki-cc2538dk.a(uip-ds6-route.o)
                0x0020960a                uip_ds6_route_next
 .text.rm_routelist_callback
                0x00209612        0x4 contiki-cc2538dk.a(uip-ds6-route.o)
 .text.rpl_remove_routes
                0x00209616       0x1e contiki-cc2538dk.a(rpl.o)
                0x00209616                rpl_remove_routes
 .text.rpl_remove_routes_by_nexthop
                0x00209634       0x36 contiki-cc2538dk.a(rpl.o)
                0x00209634                rpl_remove_routes_by_nexthop
 .text.rpl_add_route
                0x0020966a       0x28 contiki-cc2538dk.a(rpl.o)
                0x0020966a                rpl_add_route
 .text.lollipop_greater_than
                0x00209692       0x34 contiki-cc2538dk.a(rpl-dag.o)
 .text.check_prefix
                0x002096c6       0x58 contiki-cc2538dk.a(rpl-dag.o)
 .text.rpl_set_prefix
                0x0020971e       0x6c contiki-cc2538dk.a(rpl-dag.o)
                0x0020971e                rpl_set_prefix
 .text.rpl_set_default_route
                0x0020978a       0x38 contiki-cc2538dk.a(rpl-dag.o)
                0x0020978a                rpl_set_default_route
 .text.rpl_find_parent
                0x002097c2       0x16 contiki-cc2538dk.a(rpl-dag.o)
                0x002097c2                rpl_find_parent
 .text.rpl_find_parent_any_dag
                0x002097d8       0x1e contiki-cc2538dk.a(rpl-dag.o)
                0x002097d8                rpl_find_parent_any_dag
 .text.rpl_select_dag
                0x002097f6      0x152 contiki-cc2538dk.a(rpl-dag.o)
                0x002097f6                rpl_select_dag
 .text.rpl_nullify_parent
                0x00209948       0x48 contiki-cc2538dk.a(rpl-dag.o)
                0x00209948                rpl_nullify_parent
 .text.nbr_callback
                0x00209990        0x4 contiki-cc2538dk.a(rpl-dag.o)
 .text.rpl_free_dag
                0x00209994       0x2e contiki-cc2538dk.a(rpl-dag.o)
                0x00209994                rpl_free_dag
 .text.rpl_move_parent
                0x002099c2       0x48 contiki-cc2538dk.a(rpl-dag.o)
                0x002099c2                rpl_move_parent
 .text.rpl_repair_root
                0x00209a0a       0x48 contiki-cc2538dk.a(rpl-dag.o)
                0x00209a0a                rpl_repair_root
 .text.rpl_alloc_dag
                0x00209a52       0x48 contiki-cc2538dk.a(rpl-dag.o)
                0x00209a52                rpl_alloc_dag
 .text.rpl_process_parent_event
                0x00209a9a       0x60 contiki-cc2538dk.a(rpl-dag.o)
                0x00209a9a                rpl_process_parent_event
 .text.rpl_add_dag
                0x00209afa      0x100 contiki-cc2538dk.a(rpl-dag.o)
                0x00209afa                rpl_add_dag
 .text.rpl_process_dio
                0x00209bfa      0x29c contiki-cc2538dk.a(rpl-dag.o)
                0x00209bfa                rpl_process_dio
 .text.get32    0x00209e96       0x18 contiki-cc2538dk.a(rpl-icmp6.o)
 .text.set32    0x00209eae       0x12 contiki-cc2538dk.a(rpl-icmp6.o)
 .text.get16    0x00209ec0        0xc contiki-cc2538dk.a(rpl-icmp6.o)
 .text.set16    0x00209ecc        0xa contiki-cc2538dk.a(rpl-icmp6.o)
 .text.reset    0x00209ed6        0x2 contiki-cc2538dk.a(rpl-mrhof.o)
 .text.update_metric_container
                0x00209ed8        0x6 contiki-cc2538dk.a(rpl-mrhof.o)
 .text.calculate_rank
                0x00209ede       0x34 contiki-cc2538dk.a(rpl-mrhof.o)
 .text.neighbor_link_callback
                0x00209f12       0x46 contiki-cc2538dk.a(rpl-mrhof.o)
 .text.best_dag
                0x00209f58       0x2c contiki-cc2538dk.a(rpl-mrhof.o)
 .text.best_parent
                0x00209f84       0x5a contiki-cc2538dk.a(rpl-mrhof.o)
 .text.rpl_reset_dio_timer
                0x00209fde       0x1c contiki-cc2538dk.a(rpl-timers.o)
                0x00209fde                rpl_reset_dio_timer
 .text.rpl_schedule_dao
                0x00209ffa        0x8 contiki-cc2538dk.a(rpl-timers.o)
                0x00209ffa                rpl_schedule_dao
 .text.linkaddr_copy
                0x0020a002        0xa contiki-cc2538dk.a(linkaddr.o)
                0x0020a002                linkaddr_copy
 .text.linkaddr_cmp
                0x0020a00c       0x10 contiki-cc2538dk.a(linkaddr.o)
                0x0020a00c                linkaddr_cmp
 .text.nbr_set_bit
                0x0020a01c       0x38 contiki-cc2538dk.a(nbr-table.o)
 .text.item_from_key
                0x0020a054       0x22 contiki-cc2538dk.a(nbr-table.o)
 .text.nbr_table_next
                0x0020a076       0x2e contiki-cc2538dk.a(nbr-table.o)
                0x0020a076                nbr_table_next
 .text.nbr_table_get_from_lladdr
                0x0020a0a4       0x32 contiki-cc2538dk.a(nbr-table.o)
                0x0020a0a4                nbr_table_get_from_lladdr
 .text.nbr_table_get_lladdr
                0x0020a0d6        0xc contiki-cc2538dk.a(nbr-table.o)
                0x0020a0d6                nbr_table_get_lladdr
 .text.queuebuf_update_attr_from_packetbuf
                0x0020a0e2        0xc contiki-cc2538dk.a(queuebuf.o)
                0x0020a0e2                queuebuf_update_attr_from_packetbuf
 .text.queuebuf_update_from_packetbuf
                0x0020a0ee       0x1c contiki-cc2538dk.a(queuebuf.o)
                0x0020a0ee                queuebuf_update_from_packetbuf
 .text.queuebuf_attr
                0x0020a10a        0xc contiki-cc2538dk.a(queuebuf.o)
                0x0020a10a                queuebuf_attr
 .text.parse    0x0020a116       0x8e contiki-cc2538dk.a(framer-802154.o)
 .text.create   0x0020a1a4        0x6 contiki-cc2538dk.a(framer-802154.o)
 .text.hdr_length
                0x0020a1aa        0x6 contiki-cc2538dk.a(framer-802154.o)
 .text.mac_call_sent_callback
                0x0020a1b0       0x16 contiki-cc2538dk.a(mac.o)
                0x0020a1b0                mac_call_sent_callback
 .text.duty_cycle
                0x0020a1c6        0x4 contiki-cc2538dk.a(contikimac.o)
 .text.qsend_packet
                0x0020a1ca       0x22 contiki-cc2538dk.a(contikimac.o)
 .text.bootstrap
                0x0020a1ec        0x2 contiki-cc2538dk.a(nullsec.o)
 .text.on_frame_created
                0x0020a1ee        0x4 contiki-cc2538dk.a(nullsec.o)
 .text.get_overhead
                0x0020a1f2        0x4 contiki-cc2538dk.a(nullsec.o)
 .text.stimer_set
                0x0020a1f6        0xe contiki-cc2538dk.a(stimer.o)
                0x0020a1f6                stimer_set
 .text.memb_init
                0x0020a204       0x20 contiki-cc2538dk.a(memb.o)
                0x0020a204                memb_init
 .text.memb_alloc
                0x0020a224       0x28 contiki-cc2538dk.a(memb.o)
                0x0020a224                memb_alloc
 .text.memb_free
                0x0020a24c       0x2c contiki-cc2538dk.a(memb.o)
                0x0020a24c                memb_free
 .text.memb_inmemb
                0x0020a278       0x1c contiki-cc2538dk.a(memb.o)
                0x0020a278                memb_inmemb
 .text.memb_numfree
                0x0020a294       0x1c contiki-cc2538dk.a(memb.o)
                0x0020a294                memb_numfree
 .text.field_len
                0x0020a2b0       0x70 contiki-cc2538dk.a(frame802154.o)
 .text.frame802154_hdrlen
                0x0020a320       0x2c contiki-cc2538dk.a(frame802154.o)
                0x0020a320                frame802154_hdrlen
 .text.frame802154_create
                0x0020a34c       0xc4 contiki-cc2538dk.a(frame802154.o)
                0x0020a34c                frame802154_create
 *(SORT(.rodata*))
 .rodata.autostart_processes
                0x0020a410        0x8 udp-server.co
                0x0020a410                autostart_processes
 .rodata.button_select_sensor
                0x0020a418       0x10 contiki-cc2538dk.a(button-sensor.o)
                0x0020a418                button_select_sensor
 .rodata.button_up_sensor
                0x0020a428       0x10 contiki-cc2538dk.a(button-sensor.o)
                0x0020a428                button_up_sensor
 .rodata.button_left_sensor
                0x0020a438       0x10 contiki-cc2538dk.a(button-sensor.o)
                0x0020a438                button_left_sensor
 .rodata.button_right_sensor
                0x0020a448       0x10 contiki-cc2538dk.a(button-sensor.o)
                0x0020a448                button_right_sensor
 .rodata.button_down_sensor
                0x0020a458       0x10 contiki-cc2538dk.a(button-sensor.o)
                0x0020a458                button_down_sensor
 .rodata.als_sensor
                0x0020a468       0x10 contiki-cc2538dk.a(als-sensor.o)
                0x0020a468                als_sensor
 .rodata.uart_regs
                0x0020a478       0x58 contiki-cc2538dk.a(uart.o)
 .rodata.cc2538_rf_driver
                0x0020a4d0       0x38 contiki-cc2538dk.a(cc2538-rf.o)
                0x0020a4d0                cc2538_rf_driver
 .rodata.output_power
                0x0020a508       0x70 contiki-cc2538dk.a(cc2538-rf.o)
 .rodata.cc2538_temp_sensor
                0x0020a578       0x10 contiki-cc2538dk.a(cc2538-temp-sen)
                0x0020a578                cc2538_temp_sensor
 .rodata.vdd3_sensor
                0x0020a588       0x10 contiki-cc2538dk.a(vdd3-sensor.o)
                0x0020a588                vdd3_sensor
 .rodata.sicslowpan_driver
                0x0020a598        0xc contiki-cc2538dk.a(sicslowpan.o)
                0x0020a598                sicslowpan_driver
 .rodata.csma_driver
                0x0020a5a4       0x1c contiki-cc2538dk.a(csma.o)
                0x0020a5a4                csma_driver
 .rodata.framer_802154
                0x0020a5c0       0x10 contiki-cc2538dk.a(framer-802154.o)
                0x0020a5c0                framer_802154
 .rodata.contikimac_driver
                0x0020a5d0       0x20 contiki-cc2538dk.a(contikimac.o)
                0x0020a5d0                contikimac_driver
 .rodata.nullsec_driver
                0x0020a5f0       0x18 contiki-cc2538dk.a(nullsec.o)
                0x0020a5f0                nullsec_driver
 .rodata.str1.1
                0x0020a608      0x120 udp-server.co
 .rodata.str1.1
                0x0020a728       0x63 contiki-cc2538dk.a(contiki-main.o)
 .rodata.str1.1
                0x0020a78b        0x8 contiki-cc2538dk.a(sensors.o)
 .rodata.str1.1
                0x0020a793        0x7 contiki-cc2538dk.a(button-sensor.o)
 .rodata.str1.1
                0x0020a79a        0x4 contiki-cc2538dk.a(als-sensor.o)
 .rodata.str1.1
                0x0020a79e       0x11 contiki-cc2538dk.a(cc2538-rf.o)
 .rodata.str1.1
                0x0020a7af       0x14 contiki-cc2538dk.a(cc2538-temp-sen)
 .rodata.str1.1
                0x0020a7c3        0x5 contiki-cc2538dk.a(vdd3-sensor.o)
 .rodata.buffer.4159
                0x0020a7c8       0x10 contiki-cc2538dk.a(strformat.o)
 .rodata.str1.1
                0x0020a7d8       0x35 contiki-cc2538dk.a(strformat.o)
                                 0x37 (size before relaxing)
 .rodata.buffer.4150
                0x0020a80d       0x10 contiki-cc2538dk.a(strformat.o)
 .rodata.str1.1
                0x0020a81d        0xf contiki-cc2538dk.a(ctimer.o)
 .rodata.str1.1
                0x0020a82c        0xc contiki-cc2538dk.a(etimer.o)
 .rodata.str1.1
                0x0020a838        0xe contiki-cc2538dk.a(serial-line.o)
 .rodata        0x0020a846        0x2 contiki-cc2538dk.a(sicslowpan.o)
 .rodata.ttl_values
                0x0020a848        0x4 contiki-cc2538dk.a(sicslowpan.o)
 .rodata.unc_llconf
                0x0020a84c        0x4 contiki-cc2538dk.a(sicslowpan.o)
                0x0020a84c                unc_llconf
 .rodata.llprefix
                0x0020a850        0x2 contiki-cc2538dk.a(sicslowpan.o)
                0x0020a850                llprefix
 .rodata.unc_mxconf
                0x0020a852        0x4 contiki-cc2538dk.a(sicslowpan.o)
                0x0020a852                unc_mxconf
 .rodata.str1.1
                0x0020a856        0xb contiki-cc2538dk.a(sicslowpan.o)
 .rodata.unc_ctxconf
                0x0020a861        0x4 contiki-cc2538dk.a(sicslowpan.o)
                0x0020a861                unc_ctxconf
 .rodata.str1.1
                0x0020a865        0xd contiki-cc2538dk.a(tcpip.o)
 .rodata.str1.1
                0x0020a872       0x29 contiki-cc2538dk.a(uip-debug.o)
 .rodata.linkaddr_null
                0x0020a89b        0x8 contiki-cc2538dk.a(linkaddr.o)
                0x0020a89b                linkaddr_null
 .rodata.str1.1
                0x0020a8a3        0x5 contiki-cc2538dk.a(csma.o)
 .rodata.str1.1
                0x0020a8a8        0xb contiki-cc2538dk.a(contikimac.o)
 .rodata.str1.1
                0x0020a8b3        0x8 contiki-cc2538dk.a(nullsec.o)
                0x0020a8bb                _etext = .

.glue_7         0x0020a8bc        0x0
 .glue_7        0x00000000        0x0 linker stubs

.glue_7t        0x0020a8bc        0x0
 .glue_7t       0x00000000        0x0 linker stubs

.vfp11_veneer   0x0020a8bc        0x0
 .vfp11_veneer  0x00000000        0x0 linker stubs

.v4_bx          0x0020a8bc        0x0
 .v4_bx         0x00000000        0x0 linker stubs

.iplt           0x0020a8bc        0x0
 .iplt          0x00000000        0x0 obj_cc2538dk/startup-gcc.o

.socdata        0x20000000       0x40
 *(SORT(.udma_channel_control_table))
 .udma_channel_control_table
                0x20000000       0x40 contiki-cc2538dk.a(udma.o)

.data           0x20000040      0x1be load address 0x0020a8bc
                0x20000040                _data = .
 *(SORT(.data*))
 .data.udp_server_process
                0x20000040       0x10 udp-server.co
                0x20000040                udp_server_process
 .data.sensors_process
                0x20000050       0x10 contiki-cc2538dk.a(sensors.o)
                0x20000050                sensors_process
 .data.sensors  0x20000060       0x24 contiki-cc2538dk.a(smartrf-sensors)
                0x20000060                sensors
 .data.cc2538_rf_process
                0x20000084       0x10 contiki-cc2538dk.a(cc2538-rf.o)
                0x20000084                cc2538_rf_process
 .data.ctxt     0x20000094        0x8 contiki-cc2538dk.a(dbg-printf.o)
 .data.ctimer_process
                0x2000009c       0x10 contiki-cc2538dk.a(ctimer.o)
                0x2000009c                ctimer_process
 .data.etimer_process
                0x200000ac       0x10 contiki-cc2538dk.a(etimer.o)
                0x200000ac                etimer_process
 .data.serial_line_process
                0x200000bc       0x10 contiki-cc2538dk.a(serial-line.o)
                0x200000bc                serial_line_process
 .data.ds6_neighbors
                0x200000cc        0x4 contiki-cc2538dk.a(uip-ds6-nbr.o)
                0x200000cc                ds6_neighbors
 .data.ds6_neighbors_struct
                0x200000d0       0x10 contiki-cc2538dk.a(uip-ds6-nbr.o)
 .data.defaultroutermemb
                0x200000e0        0xc contiki-cc2538dk.a(uip-ds6-route.o)
 .data.nbr_routes_struct
                0x200000ec       0x10 contiki-cc2538dk.a(uip-ds6-route.o)
 .data.routememb
                0x200000fc        0xc contiki-cc2538dk.a(uip-ds6-route.o)
 .data.neighborroutememb
                0x20000108        0xc contiki-cc2538dk.a(uip-ds6-route.o)
 .data.echo_request_handler
                0x20000114        0xc contiki-cc2538dk.a(uip-icmp6.o)
 .data.echo_reply_handler
                0x20000120        0xc contiki-cc2538dk.a(uip-icmp6.o)
 .data.ns_input_handler
                0x2000012c        0xc contiki-cc2538dk.a(uip-nd6.o)
 .data.na_input_handler
                0x20000138        0xc contiki-cc2538dk.a(uip-nd6.o)
 .data.tcpip_process
                0x20000144       0x10 contiki-cc2538dk.a(tcpip.o)
                0x20000144                tcpip_process
 .data.rpl_parents
                0x20000154        0x4 contiki-cc2538dk.a(rpl-dag.o)
                0x20000154                rpl_parents
 .data.rpl_parents_struct
                0x20000158       0x10 contiki-cc2538dk.a(rpl-dag.o)
 .data.dao_ack_handler
                0x20000168        0xc contiki-cc2538dk.a(rpl-icmp6.o)
 .data.dis_handler
                0x20000174        0xc contiki-cc2538dk.a(rpl-icmp6.o)
 .data.dao_handler
                0x20000180        0xc contiki-cc2538dk.a(rpl-icmp6.o)
 .data.dio_handler
                0x2000018c        0xc contiki-cc2538dk.a(rpl-icmp6.o)
 .data.rpl_mrhof
                0x20000198       0x1c contiki-cc2538dk.a(rpl-mrhof.o)
                0x20000198                rpl_mrhof
 .data.neighbor_addr_mem
                0x200001b4        0xc contiki-cc2538dk.a(nbr-table.o)
 .data.bufmem   0x200001c0        0xc contiki-cc2538dk.a(queuebuf.o)
 .data.buframmem
                0x200001cc        0xc contiki-cc2538dk.a(queuebuf.o)
 .data.metadata_memb
                0x200001d8        0xc contiki-cc2538dk.a(csma.o)
 .data.neighbor_memb
                0x200001e4        0xc contiki-cc2538dk.a(csma.o)
 .data.packet_memb
                0x200001f0        0xc contiki-cc2538dk.a(csma.o)
 .data.rf_channel
                0x200001fc        0x1 contiki-cc2538dk.a(cc2538-rf.o)
 .data.dao_sequence
                0x200001fd        0x1 contiki-cc2538dk.a(rpl-icmp6.o)
                0x200001fe                _edata = .
                0x0020a8bc                _ldata = LOADADDR (.data)

.igot.plt       0x20000200        0x0 load address 0x0020aa7a
 .igot.plt      0x00000000        0x0 obj_cc2538dk/startup-gcc.o

.ARM.exidx      0x0020aa7c        0x8
 *(SORT(.ARM.exidx*))
 .ARM.exidx     0x0020aa7c        0x8 /usr/bin/../lib/gcc/arm-none-eabi/4.9.3/armv7-m/libgcc.a(_divdi3.o)
 .ARM.exidx     0x0020aa84        0x0 /usr/bin/../lib/gcc/arm-none-eabi/4.9.3/armv7-m/libgcc.a(_udivdi3.o)
                                  0x8 (size before relaxing)

.bss            0x20000200     0x2877
                0x20000200                _bss = .
 *(SORT(.bss*))
 .bss.rt_ticks_startup
                0x20000200        0x8 contiki-cc2538dk.a(clock.o)
 .bss.rt_ticks_epoch
                0x20000208        0x8 contiki-cc2538dk.a(clock.o)
 .bss.server_conn
                0x20000210        0x4 udp-server.co
 .bss.i.4710    0x20000214        0x4 contiki-cc2538dk.a(sensors.o)
 .bss.events.4711
                0x20000218        0x4 contiki-cc2538dk.a(sensors.o)
 .bss.debouncetimer
                0x2000021c        0x8 contiki-cc2538dk.a(button-sensor.o)
 .bss.next_trigger
                0x20000224        0x4 contiki-cc2538dk.a(rtimer-arch.o)
 .bss.input_handler
                0x20000228        0x8 contiki-cc2538dk.a(uart.o)
 .bss.interrupt_disable
                0x20000230        0x4 contiki-cc2538dk.a(nvic.o)
 .bss.interrupt_pend
                0x20000234        0x4 contiki-cc2538dk.a(nvic.o)
 .bss.interrupt_unpend
                0x20000238        0x4 contiki-cc2538dk.a(nvic.o)
 .bss.interrupt_enable
                0x2000023c        0x4 contiki-cc2538dk.a(nvic.o)
 .bss.gpio_callbacks
                0x20000240       0x80 contiki-cc2538dk.a(gpio.o)
 .bss.ioc_sel   0x200002c0        0x4 contiki-cc2538dk.a(ioc.o)
 .bss.ioc_over  0x200002c4        0x4 contiki-cc2538dk.a(ioc.o)
 .bss.notification_process
                0x200002c8        0x4 contiki-cc2538dk.a(crypto.o)
 .bss.periph_permit_pm1_funcs
                0x200002cc        0xc contiki-cc2538dk.a(lpm.o)
 .bss.ctimer_list_list
                0x200002d8        0x4 contiki-cc2538dk.a(ctimer.o)
 .bss.timerlist
                0x200002dc        0x4 contiki-cc2538dk.a(etimer.o)
 .bss.next_expiration
                0x200002e0        0x4 contiki-cc2538dk.a(etimer.o)
 .bss.data.5352
                0x200002e4        0x4 contiki-cc2538dk.a(process.o)
 .bss.process_current
                0x200002e8        0x4 contiki-cc2538dk.a(process.o)
                0x200002e8                process_current
 .bss.p.5354    0x200002ec        0x4 contiki-cc2538dk.a(process.o)
 .bss.process_list
                0x200002f0        0x4 contiki-cc2538dk.a(process.o)
                0x200002f0                process_list
 .bss.events    0x200002f4      0x180 contiki-cc2538dk.a(process.o)
 .bss.receiver.5353
                0x20000474        0x4 contiki-cc2538dk.a(process.o)
 .bss.next_rtimer
                0x20000478        0x4 contiki-cc2538dk.a(rtimer.o)
 .bss.rxbuf     0x2000047c        0x8 contiki-cc2538dk.a(serial-line.o)
 .bss.ptr.4695  0x20000484        0x4 contiki-cc2538dk.a(serial-line.o)
 .bss.context   0x20000488        0x4 contiki-cc2538dk.a(sicslowpan.o)
 .bss.last_rssi
                0x2000048c        0x4 contiki-cc2538dk.a(sicslowpan.o)
 .bss.hc06_ptr  0x20000490        0x4 contiki-cc2538dk.a(sicslowpan.o)
 .bss.reass_timer
                0x20000494        0x8 contiki-cc2538dk.a(sicslowpan.o)
 .bss.packetbuf_ptr
                0x2000049c        0x4 contiki-cc2538dk.a(sicslowpan.o)
 .bss.packetbuf_payload_len
                0x200004a0        0x4 contiki-cc2538dk.a(sicslowpan.o)
 .bss.last_tx_status
                0x200004a4        0x4 contiki-cc2538dk.a(sicslowpan.o)
 .bss.sicslowpan_aligned_buf
                0x200004a8      0x514 contiki-cc2538dk.a(sicslowpan.o)
 .bss.callback  0x200009bc        0x4 contiki-cc2538dk.a(sicslowpan.o)
 .bss.locmaddr  0x200009c0        0x4 contiki-cc2538dk.a(uip-ds6.o)
 .bss.locprefix
                0x200009c4        0x4 contiki-cc2538dk.a(uip-ds6.o)
 .bss.locaddr   0x200009c8        0x4 contiki-cc2538dk.a(uip-ds6.o)
 .bss._ds6_neighbors_mem
                0x200009cc      0x320 contiki-cc2538dk.a(uip-ds6-nbr.o)
 .bss.defaultroutermemb_memb_mem
                0x20000cec       0x40 contiki-cc2538dk.a(uip-ds6-route.o)
 .bss.num_routes
                0x20000d2c        0x4 contiki-cc2538dk.a(uip-ds6-route.o)
 .bss.defaultrouterlist_list
                0x20000d30        0x4 contiki-cc2538dk.a(uip-ds6-route.o)
 .bss._nbr_routes_mem
                0x20000d34       0xa0 contiki-cc2538dk.a(uip-ds6-route.o)
 .bss.routelist_list
                0x20000dd4        0x4 contiki-cc2538dk.a(uip-ds6-route.o)
 .bss.routememb_memb_mem
                0x20000dd8      0x320 contiki-cc2538dk.a(uip-ds6-route.o)
 .bss.neighborroutememb_memb_mem
                0x200010f8       0xa0 contiki-cc2538dk.a(uip-ds6-route.o)
 .bss.notificationlist_list
                0x20001198        0x4 contiki-cc2538dk.a(uip-ds6-route.o)
 .bss.echo_reply_callback_list_list
                0x2000119c        0x4 contiki-cc2538dk.a(uip-icmp6.o)
 .bss.input_handler_list_list
                0x200011a0        0x4 contiki-cc2538dk.a(uip-icmp6.o)
 .bss.defrt     0x200011a4        0x4 contiki-cc2538dk.a(uip-nd6.o)
 .bss.nbr       0x200011a8        0x4 contiki-cc2538dk.a(uip-nd6.o)
 .bss.nd6_opt_llao
                0x200011ac        0x4 contiki-cc2538dk.a(uip-nd6.o)
 .bss.addr      0x200011b0        0x4 contiki-cc2538dk.a(uip-nd6.o)
 .bss.s         0x200011b4       0x44 contiki-cc2538dk.a(tcpip.o)
 .bss.periodic  0x200011f8       0x10 contiki-cc2538dk.a(tcpip.o)
 .bss.outputfunc
                0x20001208        0x4 contiki-cc2538dk.a(tcpip.o)
 .bss._rpl_parents_mem
                0x2000120c      0x190 contiki-cc2538dk.a(rpl-dag.o)
 .bss.periodic_timer
                0x2000139c       0x20 contiki-cc2538dk.a(rpl-timers.o)
 .bss.nbr_table_keys_list
                0x200013bc        0x4 contiki-cc2538dk.a(nbr-table.o)
 .bss.neighbor_addr_mem_memb_mem
                0x200013c0       0xf0 contiki-cc2538dk.a(nbr-table.o)
 .bss.all_tables
                0x200014b0       0x20 contiki-cc2538dk.a(nbr-table.o)
 .bss.num_tables
                0x200014d0        0x4 contiki-cc2538dk.a(nbr-table.o)
 .bss.packetbufptr
                0x200014d4        0x4 contiki-cc2538dk.a(packetbuf.o)
 .bss.packetbuf_aligned
                0x200014d8       0xb0 contiki-cc2538dk.a(packetbuf.o)
 .bss.bufmem_memb_mem
                0x20001588       0x20 contiki-cc2538dk.a(queuebuf.o)
 .bss.metadata_memb_memb_mem
                0x200015a8       0x60 contiki-cc2538dk.a(csma.o)
 .bss.neighbor_list_list
                0x20001608        0x4 contiki-cc2538dk.a(csma.o)
 .bss.packet_memb_memb_mem
                0x2000160c       0x60 contiki-cc2538dk.a(csma.o)
 .bss.neighbor_memb_memb_mem
                0x2000166c       0x70 contiki-cc2538dk.a(csma.o)
 .bss.cycle_start
                0x200016dc        0x4 contiki-cc2538dk.a(contikimac.o)
 .bss.we_are_receiving_burst
                0x200016e0        0x4 contiki-cc2538dk.a(contikimac.o)
 .bss.rt        0x200016e4        0xc contiki-cc2538dk.a(contikimac.o)
 .bss.start.6966
                0x200016f0        0x4 contiki-cc2538dk.a(contikimac.o)
 .bss.ct.7040   0x200016f4       0x20 contiki-cc2538dk.a(contikimac.o)
 .bss.reass_tag
                0x20001714        0x2 contiki-cc2538dk.a(sicslowpan.o)
 .bss.sicslowpan_len
                0x20001716        0x2 contiki-cc2538dk.a(sicslowpan.o)
 .bss.my_tag    0x20001718        0x2 contiki-cc2538dk.a(sicslowpan.o)
 .bss.processed_ip_in_len
                0x2000171a        0x2 contiki-cc2538dk.a(sicslowpan.o)
 .bss.tmp16     0x2000171c        0x2 contiki-cc2538dk.a(uip6.o)
 .bss.lastport  0x2000171e        0x2 contiki-cc2538dk.a(uip6.o)
 .bss.loc_fipaddr
                0x20001720       0x10 contiki-cc2538dk.a(uip-ds6.o)
 .bss.tmp_ipaddr
                0x20001730       0x10 contiki-cc2538dk.a(uip-icmp6.o)
 .bss.next_dis  0x20001740        0x2 contiki-cc2538dk.a(rpl-timers.o)
 .bss.buflen    0x20001742        0x2 contiki-cc2538dk.a(packetbuf.o)
 .bss.bufptr    0x20001744        0x2 contiki-cc2538dk.a(packetbuf.o)
 .bss.buframmem_memb_mem
                0x20001746      0x580 contiki-cc2538dk.a(queuebuf.o)
 .bss.seqno.6225
                0x20001cc6        0x2 contiki-cc2538dk.a(csma.o)
 .bss.pt        0x20001cc8        0x2 contiki-cc2538dk.a(contikimac.o)
 .bss.num_sensors
                0x20001cca        0x1 contiki-cc2538dk.a(sensors.o)
 .bss.rf_flags  0x20001ccb        0x1 contiki-cc2538dk.a(cc2538-rf.o)
 .bss.max_pm    0x20001ccc        0x1 contiki-cc2538dk.a(lpm.o)
 .bss.initialized
                0x20001ccd        0x1 contiki-cc2538dk.a(ctimer.o)
 .bss.snum.5369
                0x20001cce        0x1 contiki-cc2538dk.a(process.o)
 .bss.fevent    0x20001ccf        0x1 contiki-cc2538dk.a(process.o)
 .bss.ev.5351   0x20001cd0        0x1 contiki-cc2538dk.a(process.o)
 .bss.nevents   0x20001cd1        0x1 contiki-cc2538dk.a(process.o)
 .bss.poll_requested
                0x20001cd2        0x1 contiki-cc2538dk.a(process.o)
 .bss.lastevent
                0x20001cd3        0x1 contiki-cc2538dk.a(process.o)
 .bss.rxbuf_data
                0x20001cd4       0x80 contiki-cc2538dk.a(serial-line.o)
 .bss.overflow.4688
                0x20001d54        0x1 contiki-cc2538dk.a(serial-line.o)
 .bss.buf.4694  0x20001d55       0x80 contiki-cc2538dk.a(serial-line.o)
 .bss.uncomp_hdr_len
                0x20001dd5        0x1 contiki-cc2538dk.a(sicslowpan.o)
 .bss.addr_contexts
                0x20001dd6        0xa contiki-cc2538dk.a(sicslowpan.o)
 .bss.packetbuf_hdr_len
                0x20001de0        0x1 contiki-cc2538dk.a(sicslowpan.o)
 .bss.uip_ext_len
                0x20001de1        0x1 contiki-cc2538dk.a(uip6.o)
                0x20001de1                uip_ext_len
 .bss.uip_ext_bitmap
                0x20001de2        0x1 contiki-cc2538dk.a(uip6.o)
                0x20001de2                uip_ext_bitmap
 .bss.iss       0x20001de3        0x4 contiki-cc2538dk.a(uip6.o)
 .bss.uip_ext_opt_offset
                0x20001de7        0x1 contiki-cc2538dk.a(uip6.o)
                0x20001de7                uip_ext_opt_offset
 .bss.c         0x20001de8        0x1 contiki-cc2538dk.a(uip6.o)
 .bss.opt       0x20001de9        0x1 contiki-cc2538dk.a(uip6.o)
 .bss.defaultroutermemb_memb_count
                0x20001dea        0x2 contiki-cc2538dk.a(uip-ds6-route.o)
 .bss.neighborroutememb_memb_count
                0x20001dec       0x14 contiki-cc2538dk.a(uip-ds6-route.o)
 .bss.routememb_memb_count
                0x20001e00       0x14 contiki-cc2538dk.a(uip-ds6-route.o)
 .bss.nd6_opt_offset
                0x20001e14        0x1 contiki-cc2538dk.a(uip-nd6.o)
 .bss.i.7772    0x20001e15        0x1 contiki-cc2538dk.a(tcpip.o)
 .bss.i.7816    0x20001e16        0x1 contiki-cc2538dk.a(tcpip.o)
 .bss.i.7828    0x20001e17        0x1 contiki-cc2538dk.a(tcpip.o)
 .bss.mode      0x20001e18        0x1 contiki-cc2538dk.a(rpl.o)
 .bss.dio_send_ok
                0x20001e19        0x1 contiki-cc2538dk.a(rpl-timers.o)
 .bss.neighbor_addr_mem_memb_count
                0x20001e1a       0x14 contiki-cc2538dk.a(nbr-table.o)
 .bss.locked_map
                0x20001e2e       0x14 contiki-cc2538dk.a(nbr-table.o)
 .bss.used_map  0x20001e42       0x14 contiki-cc2538dk.a(nbr-table.o)
 .bss.hdrptr    0x20001e56        0x1 contiki-cc2538dk.a(packetbuf.o)
 .bss.buframmem_memb_count
                0x20001e57        0x8 contiki-cc2538dk.a(queuebuf.o)
 .bss.bufmem_memb_count
                0x20001e5f        0x8 contiki-cc2538dk.a(queuebuf.o)
 .bss.packet_memb_memb_count
                0x20001e67        0x8 contiki-cc2538dk.a(csma.o)
 .bss.metadata_memb_memb_count
                0x20001e6f        0x8 contiki-cc2538dk.a(csma.o)
 .bss.initialized.6224
                0x20001e77        0x1 contiki-cc2538dk.a(csma.o)
 .bss.neighbor_memb_memb_count
                0x20001e78        0x2 contiki-cc2538dk.a(csma.o)
 .bss.mac_dsn   0x20001e7a        0x1 contiki-cc2538dk.a(framer-802154.o)
 .bss.initialized
                0x20001e7b        0x1 contiki-cc2538dk.a(framer-802154.o)
 .bss.radio_is_on
                0x20001e7c        0x1 contiki-cc2538dk.a(contikimac.o)
 .bss.we_are_sending
                0x20001e7d        0x1 contiki-cc2538dk.a(contikimac.o)
 .bss.contikimac_keep_radio_on
                0x20001e7e        0x1 contiki-cc2538dk.a(contikimac.o)
 .bss.periods.6968
                0x20001e7f        0x1 contiki-cc2538dk.a(contikimac.o)
 .bss.packet_seen.6960
                0x20001e80        0x1 contiki-cc2538dk.a(contikimac.o)
 .bss.count.6961
                0x20001e81        0x1 contiki-cc2538dk.a(contikimac.o)
 .bss.contikimac_is_on
                0x20001e82        0x1 contiki-cc2538dk.a(contikimac.o)
 .bss.silence_periods.6967
                0x20001e83        0x1 contiki-cc2538dk.a(contikimac.o)
 .bss.leds      0x20001e84        0x1 contiki-cc2538dk.a(leds.o)
 .bss.received_seqnos
                0x20001e85       0x90 contiki-cc2538dk.a(mac-sequence.o)
 *(SORT(COMMON))
 *fill*         0x20001f15        0x3 
 COMMON         0x20001f18      0x878 contiki-cc2538dk.a(uip6.o)
                0x20001f18                uip_len
                0x20001f1c                uip_sappdata
                0x20001f20                uip_acc32
                0x20001f24                uip_lladdr
                0x20001f2c                uip_aligned_buf
                0x20002440                uip_flags
                0x20002444                uip_next_hdr
                0x20002448                uip_udp_conn
                0x2000244c                uip_appdata
                0x20002450                uip_conn
                0x20002454                uip_conns
                0x20002634                uip_icmp6_conns
                0x2000263c                uip_listenports
                0x2000264c                uip_slen
                0x20002650                uip_udp_conns
 COMMON         0x20002790      0x174 contiki-cc2538dk.a(uip-ds6.o)
                0x20002790                uip_ds6_timer_ra
                0x20002798                uip_ds6_if
                0x20002890                uip_ds6_netif_addr_list_offset
                0x20002891                uip_ds6_addr_size
                0x20002894                uip_ds6_prefix_list
                0x200028f4                uip_ds6_timer_periodic
 COMMON         0x20002904      0x128 contiki-cc2538dk.a(rpl-dag.o)
                0x20002904                default_instance
                0x20002908                instance_table
 COMMON         0x20002a2c       0x2e contiki-cc2538dk.a(packetbuf.o)
                0x20002a2c                packetbuf_addrs
                0x20002a3c                packetbuf_attrs
 COMMON         0x20002a5a        0x1 contiki-cc2538dk.a(sensors.o)
                0x20002a5a                sensors_event
 COMMON         0x20002a5b        0x9 contiki-cc2538dk.a(smartrf-sensors)
                0x20002a5b                sensors_flags
 COMMON         0x20002a64        0x1 contiki-cc2538dk.a(serial-line.o)
                0x20002a64                serial_line_event_message
 COMMON         0x20002a65        0x8 contiki-cc2538dk.a(sicslowpan.o)
                0x20002a65                frag_sender
 COMMON         0x20002a6d        0x2 contiki-cc2538dk.a(tcpip.o)
                0x20002a6d                tcpip_event
                0x20002a6e                tcpip_icmp6_event
 COMMON         0x20002a6f        0x8 contiki-cc2538dk.a(linkaddr.o)
                0x20002a6f                linkaddr_node_addr
                0x20002a77                _ebss = .

.stack          0x20002a78      0x800
 *(SORT(.stack))
 .stack         0x20002a78      0x800 obj_cc2538dk/startup-gcc.o

.flashcca       0x0027ffd4       0x2c
 *(SORT(.flashcca))
 .flashcca      0x0027ffd4       0x2c obj_cc2538dk/startup-gcc.o
                0x0027ffd4                __cca
OUTPUT(udp-server.elf elf32-littlearm)

.rel.dyn        0x00280000        0x0
 .rel.iplt      0x00000000        0x0 obj_cc2538dk/startup-gcc.o

.comment        0x00000000       0x70
 .comment       0x00000000       0x70 obj_cc2538dk/startup-gcc.o
                                 0x71 (size before relaxing)
 .comment       0x00000000       0x71 udp-server.co
 .comment       0x00000000       0x71 contiki-cc2538dk.a(contiki-main.o)
 .comment       0x00000000       0x71 contiki-cc2538dk.a(sensors.o)
 .comment       0x00000000       0x71 contiki-cc2538dk.a(smartrf-sensors)
 .comment       0x00000000       0x71 contiki-cc2538dk.a(button-sensor.o)
 .comment       0x00000000       0x71 contiki-cc2538dk.a(als-sensor.o)
 .comment       0x00000000       0x71 contiki-cc2538dk.a(clock.o)
 .comment       0x00000000       0x71 contiki-cc2538dk.a(rtimer-arch.o)
 .comment       0x00000000       0x71 contiki-cc2538dk.a(uart.o)
 .comment       0x00000000       0x71 contiki-cc2538dk.a(watchdog.o)
 .comment       0x00000000       0x71 contiki-cc2538dk.a(nvic.o)
 .comment       0x00000000       0x71 contiki-cc2538dk.a(cpu.o)
 .comment       0x00000000       0x71 contiki-cc2538dk.a(sys-ctrl.o)
 .comment       0x00000000       0x71 contiki-cc2538dk.a(gpio.o)
 .comment       0x00000000       0x71 contiki-cc2538dk.a(ioc.o)
 .comment       0x00000000       0x71 contiki-cc2538dk.a(adc.o)
 .comment       0x00000000       0x71 contiki-cc2538dk.a(crypto.o)
 .comment       0x00000000       0x71 contiki-cc2538dk.a(cc2538-rf.o)
 .comment       0x00000000       0x71 contiki-cc2538dk.a(udma.o)
 .comment       0x00000000       0x71 contiki-cc2538dk.a(lpm.o)
 .comment       0x00000000       0x71 contiki-cc2538dk.a(dbg.o)
 .comment       0x00000000       0x71 contiki-cc2538dk.a(ieee-addr.o)
 .comment       0x00000000       0x71 contiki-cc2538dk.a(cc2538-temp-sen)
 .comment       0x00000000       0x71 contiki-cc2538dk.a(vdd3-sensor.o)
 .comment       0x00000000       0x71 contiki-cc2538dk.a(dbg-printf.o)
 .comment       0x00000000       0x71 contiki-cc2538dk.a(strformat.o)
 .comment       0x00000000       0x71 contiki-cc2538dk.a(autostart.o)
 .comment       0x00000000       0x71 contiki-cc2538dk.a(ctimer.o)
 .comment       0x00000000       0x71 contiki-cc2538dk.a(energest.o)
 .comment       0x00000000       0x71 contiki-cc2538dk.a(etimer.o)
 .comment       0x00000000       0x71 contiki-cc2538dk.a(process.o)
 .comment       0x00000000       0x71 contiki-cc2538dk.a(rtimer.o)
 .comment       0x00000000       0x71 contiki-cc2538dk.a(timer.o)
 .comment       0x00000000       0x71 contiki-cc2538dk.a(serial-line.o)
 .comment       0x00000000       0x71 contiki-cc2538dk.a(list.o)
 .comment       0x00000000       0x71 contiki-cc2538dk.a(random.o)
 .comment       0x00000000       0x71 contiki-cc2538dk.a(ringbuf.o)
 .comment       0x00000000       0x71 contiki-cc2538dk.a(sicslowpan.o)
 .comment       0x00000000       0x71 contiki-cc2538dk.a(uip6.o)
 .comment       0x00000000       0x71 contiki-cc2538dk.a(uip-ds6.o)
 .comment       0x00000000       0x71 contiki-cc2538dk.a(uip-ds6-nbr.o)
 .comment       0x00000000       0x71 contiki-cc2538dk.a(uip-ds6-route.o)
 .comment       0x00000000       0x71 contiki-cc2538dk.a(uip-icmp6.o)
 .comment       0x00000000       0x71 contiki-cc2538dk.a(uip-nd6.o)
 .comment       0x00000000       0x71 contiki-cc2538dk.a(tcpip.o)
 .comment       0x00000000       0x71 contiki-cc2538dk.a(uip-debug.o)
 .comment       0x00000000       0x71 contiki-cc2538dk.a(rpl.o)
 .comment       0x00000000       0x71 contiki-cc2538dk.a(rpl-dag.o)
 .comment       0x00000000       0x71 contiki-cc2538dk.a(rpl-ext-header.)
 .comment       0x00000000       0x71 contiki-cc2538dk.a(rpl-icmp6.o)
 .comment       0x00000000       0x71 contiki-cc2538dk.a(rpl-mrhof.o)
 .comment       0x00000000       0x71 contiki-cc2538dk.a(rpl-timers.o)
 .comment       0x00000000       0x71 contiki-cc2538dk.a(linkaddr.o)
 .comment       0x00000000       0x71 contiki-cc2538dk.a(nbr-table.o)
 .comment       0x00000000       0x71 contiki-cc2538dk.a(netstack.o)
 .comment       0x00000000       0x71 contiki-cc2538dk.a(packetbuf.o)
 .comment       0x00000000       0x71 contiki-cc2538dk.a(queuebuf.o)
 .comment       0x00000000       0x71 contiki-cc2538dk.a(csma.o)
 .comment       0x00000000       0x71 contiki-cc2538dk.a(framer-802154.o)
 .comment       0x00000000       0x71 contiki-cc2538dk.a(framer.o)
 .comment       0x00000000       0x71 contiki-cc2538dk.a(mac.o)
 .comment       0x00000000       0x71 contiki-cc2538dk.a(contikimac.o)
 .comment       0x00000000       0x71 contiki-cc2538dk.a(nullsec.o)
 .comment       0x00000000       0x71 contiki-cc2538dk.a(leds.o)
 .comment       0x00000000       0x71 contiki-cc2538dk.a(leds-arch.o)
 .comment       0x00000000       0x71 contiki-cc2538dk.a(stimer.o)
 .comment       0x00000000       0x71 contiki-cc2538dk.a(memb.o)
 .comment       0x00000000       0x71 contiki-cc2538dk.a(frame802154.o)
 .comment       0x00000000       0x71 contiki-cc2538dk.a(mac-sequence.o)

.ARM.attributes
                0x00000000       0x31
 .ARM.attributes
                0x00000000       0x33 obj_cc2538dk/startup-gcc.o
 .ARM.attributes
                0x00000033       0x33 udp-server.co
 .ARM.attributes
                0x00000066       0x33 contiki-cc2538dk.a(contiki-main.o)
 .ARM.attributes
                0x00000099       0x33 contiki-cc2538dk.a(sensors.o)
 .ARM.attributes
                0x000000cc       0x33 contiki-cc2538dk.a(smartrf-sensors)
 .ARM.attributes
                0x000000ff       0x33 contiki-cc2538dk.a(button-sensor.o)
 .ARM.attributes
                0x00000132       0x33 contiki-cc2538dk.a(als-sensor.o)
 .ARM.attributes
                0x00000165       0x33 contiki-cc2538dk.a(clock.o)
 .ARM.attributes
                0x00000198       0x33 contiki-cc2538dk.a(rtimer-arch.o)
 .ARM.attributes
                0x000001cb       0x33 contiki-cc2538dk.a(uart.o)
 .ARM.attributes
                0x000001fe       0x33 contiki-cc2538dk.a(watchdog.o)
 .ARM.attributes
                0x00000231       0x33 contiki-cc2538dk.a(nvic.o)
 .ARM.attributes
                0x00000264       0x33 contiki-cc2538dk.a(cpu.o)
 .ARM.attributes
                0x00000297       0x33 contiki-cc2538dk.a(sys-ctrl.o)
 .ARM.attributes
                0x000002ca       0x33 contiki-cc2538dk.a(gpio.o)
 .ARM.attributes
                0x000002fd       0x33 contiki-cc2538dk.a(ioc.o)
 .ARM.attributes
                0x00000330       0x33 contiki-cc2538dk.a(adc.o)
 .ARM.attributes
                0x00000363       0x33 contiki-cc2538dk.a(crypto.o)
 .ARM.attributes
                0x00000396       0x33 contiki-cc2538dk.a(cc2538-rf.o)
 .ARM.attributes
                0x000003c9       0x33 contiki-cc2538dk.a(udma.o)
 .ARM.attributes
                0x000003fc       0x33 contiki-cc2538dk.a(lpm.o)
 .ARM.attributes
                0x0000042f       0x33 contiki-cc2538dk.a(dbg.o)
 .ARM.attributes
                0x00000462       0x33 contiki-cc2538dk.a(ieee-addr.o)
 .ARM.attributes
                0x00000495       0x33 contiki-cc2538dk.a(cc2538-temp-sen)
 .ARM.attributes
                0x000004c8       0x33 contiki-cc2538dk.a(vdd3-sensor.o)
 .ARM.attributes
                0x000004fb       0x33 contiki-cc2538dk.a(dbg-printf.o)
 .ARM.attributes
                0x0000052e       0x33 contiki-cc2538dk.a(strformat.o)
 .ARM.attributes
                0x00000561       0x33 contiki-cc2538dk.a(autostart.o)
 .ARM.attributes
                0x00000594       0x33 contiki-cc2538dk.a(ctimer.o)
 .ARM.attributes
                0x000005c7       0x33 contiki-cc2538dk.a(energest.o)
 .ARM.attributes
                0x000005fa       0x33 contiki-cc2538dk.a(etimer.o)
 .ARM.attributes
                0x0000062d       0x33 contiki-cc2538dk.a(process.o)
 .ARM.attributes
                0x00000660       0x33 contiki-cc2538dk.a(rtimer.o)
 .ARM.attributes
                0x00000693       0x33 contiki-cc2538dk.a(timer.o)
 .ARM.attributes
                0x000006c6       0x33 contiki-cc2538dk.a(serial-line.o)
 .ARM.attributes
                0x000006f9       0x33 contiki-cc2538dk.a(list.o)
 .ARM.attributes
                0x0000072c       0x33 contiki-cc2538dk.a(random.o)
 .ARM.attributes
                0x0000075f       0x33 contiki-cc2538dk.a(ringbuf.o)
 .ARM.attributes
                0x00000792       0x33 contiki-cc2538dk.a(sicslowpan.o)
 .ARM.attributes
                0x000007c5       0x33 contiki-cc2538dk.a(uip6.o)
 .ARM.attributes
                0x000007f8       0x33 contiki-cc2538dk.a(uip-ds6.o)
 .ARM.attributes
                0x0000082b       0x33 contiki-cc2538dk.a(uip-ds6-nbr.o)
 .ARM.attributes
                0x0000085e       0x33 contiki-cc2538dk.a(uip-ds6-route.o)
 .ARM.attributes
                0x00000891       0x33 contiki-cc2538dk.a(uip-icmp6.o)
 .ARM.attributes
                0x000008c4       0x33 contiki-cc2538dk.a(uip-nd6.o)
 .ARM.attributes
                0x000008f7       0x33 contiki-cc2538dk.a(tcpip.o)
 .ARM.attributes
                0x0000092a       0x33 contiki-cc2538dk.a(uip-debug.o)
 .ARM.attributes
                0x0000095d       0x33 contiki-cc2538dk.a(rpl.o)
 .ARM.attributes
                0x00000990       0x33 contiki-cc2538dk.a(rpl-dag.o)
 .ARM.attributes
                0x000009c3       0x33 contiki-cc2538dk.a(rpl-ext-header.)
 .ARM.attributes
                0x000009f6       0x33 contiki-cc2538dk.a(rpl-icmp6.o)
 .ARM.attributes
                0x00000a29       0x33 contiki-cc2538dk.a(rpl-mrhof.o)
 .ARM.attributes
                0x00000a5c       0x33 contiki-cc2538dk.a(rpl-timers.o)
 .ARM.attributes
                0x00000a8f       0x33 contiki-cc2538dk.a(linkaddr.o)
 .ARM.attributes
                0x00000ac2       0x33 contiki-cc2538dk.a(nbr-table.o)
 .ARM.attributes
                0x00000af5       0x33 contiki-cc2538dk.a(netstack.o)
 .ARM.attributes
                0x00000b28       0x33 contiki-cc2538dk.a(packetbuf.o)
 .ARM.attributes
                0x00000b5b       0x33 contiki-cc2538dk.a(queuebuf.o)
 .ARM.attributes
                0x00000b8e       0x33 contiki-cc2538dk.a(csma.o)
 .ARM.attributes
                0x00000bc1       0x33 contiki-cc2538dk.a(framer-802154.o)
 .ARM.attributes
                0x00000bf4       0x33 contiki-cc2538dk.a(framer.o)
 .ARM.attributes
                0x00000c27       0x33 contiki-cc2538dk.a(mac.o)
 .ARM.attributes
                0x00000c5a       0x33 contiki-cc2538dk.a(contikimac.o)
 .ARM.attributes
                0x00000c8d       0x33 contiki-cc2538dk.a(nullsec.o)
 .ARM.attributes
                0x00000cc0       0x33 contiki-cc2538dk.a(leds.o)
 .ARM.attributes
                0x00000cf3       0x33 contiki-cc2538dk.a(leds-arch.o)
 .ARM.attributes
                0x00000d26       0x33 contiki-cc2538dk.a(stimer.o)
 .ARM.attributes
                0x00000d59       0x33 contiki-cc2538dk.a(memb.o)
 .ARM.attributes
                0x00000d8c       0x33 contiki-cc2538dk.a(frame802154.o)
 .ARM.attributes
                0x00000dbf       0x33 contiki-cc2538dk.a(mac-sequence.o)
 .ARM.attributes
                0x00000df2       0x1d /usr/bin/../lib/gcc/arm-none-eabi/4.9.3/armv7-m/libgcc.a(_aeabi_uldivmod.o)
 .ARM.attributes
                0x00000e0f       0x2d /usr/bin/../lib/gcc/arm-none-eabi/4.9.3/armv7-m/libgcc.a(bpabi.o)
 .ARM.attributes
                0x00000e3c       0x1d /usr/bin/../lib/gcc/arm-none-eabi/4.9.3/armv7-m/libgcc.a(_dvmd_tls.o)
 .ARM.attributes
                0x00000e59       0x2d /usr/bin/../lib/gcc/arm-none-eabi/4.9.3/armv7-m/libgcc.a(_divdi3.o)
 .ARM.attributes
                0x00000e86       0x2d /usr/bin/../lib/gcc/arm-none-eabi/4.9.3/armv7-m/libgcc.a(_udivdi3.o)
 .ARM.attributes
                0x00000eb3       0x2d /usr/bin/../lib/gcc/arm-none-eabi/4.9.3/../../../../arm-none-eabi/lib/armv7-m/libc.a(lib_a-memcmp.o)
 .ARM.attributes
                0x00000ee0       0x1b /usr/bin/../lib/gcc/arm-none-eabi/4.9.3/../../../../arm-none-eabi/lib/armv7-m/libc.a(lib_a-memcpy.o)
 .ARM.attributes
                0x00000efb       0x2d /usr/bin/../lib/gcc/arm-none-eabi/4.9.3/../../../../arm-none-eabi/lib/armv7-m/libc.a(lib_a-memmove.o)
 .ARM.attributes
                0x00000f28       0x2d /usr/bin/../lib/gcc/arm-none-eabi/4.9.3/../../../../arm-none-eabi/lib/armv7-m/libc.a(lib_a-memset.o)

.debug_frame    0x00000000      0x180
 .debug_frame   0x00000000       0x28 /usr/bin/../lib/gcc/arm-none-eabi/4.9.3/armv7-m/libgcc.a(_aeabi_uldivmod.o)
 .debug_frame   0x00000028       0x54 /usr/bin/../lib/gcc/arm-none-eabi/4.9.3/armv7-m/libgcc.a(bpabi.o)
 .debug_frame   0x0000007c       0x34 /usr/bin/../lib/gcc/arm-none-eabi/4.9.3/armv7-m/libgcc.a(_divdi3.o)
 .debug_frame   0x000000b0       0x34 /usr/bin/../lib/gcc/arm-none-eabi/4.9.3/armv7-m/libgcc.a(_udivdi3.o)
 .debug_frame   0x000000e4       0x38 /usr/bin/../lib/gcc/arm-none-eabi/4.9.3/../../../../arm-none-eabi/lib/armv7-m/libc.a(lib_a-memcmp.o)
 .debug_frame   0x0000011c       0x30 /usr/bin/../lib/gcc/arm-none-eabi/4.9.3/../../../../arm-none-eabi/lib/armv7-m/libc.a(lib_a-memmove.o)
 .debug_frame   0x0000014c       0x34 /usr/bin/../lib/gcc/arm-none-eabi/4.9.3/../../../../arm-none-eabi/lib/armv7-m/libc.a(lib_a-memset.o)

Cross Reference Table

Symbol                                            File
__aeabi_idiv0                                     /usr/bin/../lib/gcc/arm-none-eabi/4.9.3/armv7-m/libgcc.a(_dvmd_tls.o)
__aeabi_ldiv0                                     /usr/bin/../lib/gcc/arm-none-eabi/4.9.3/armv7-m/libgcc.a(_dvmd_tls.o)
                                                  /usr/bin/../lib/gcc/arm-none-eabi/4.9.3/armv7-m/libgcc.a(_aeabi_uldivmod.o)
__aeabi_uldivmod                                  /usr/bin/../lib/gcc/arm-none-eabi/4.9.3/armv7-m/libgcc.a(_aeabi_uldivmod.o)
                                                  contiki-cc2538dk.a(strformat.o)
__cca                                             obj_cc2538dk/startup-gcc.o
__divdi3                                          /usr/bin/../lib/gcc/arm-none-eabi/4.9.3/armv7-m/libgcc.a(_divdi3.o)
                                                  /usr/bin/../lib/gcc/arm-none-eabi/4.9.3/armv7-m/libgcc.a(bpabi.o)
__gnu_ldivmod_helper                              /usr/bin/../lib/gcc/arm-none-eabi/4.9.3/armv7-m/libgcc.a(bpabi.o)
__gnu_uldivmod_helper                             /usr/bin/../lib/gcc/arm-none-eabi/4.9.3/armv7-m/libgcc.a(bpabi.o)
                                                  /usr/bin/../lib/gcc/arm-none-eabi/4.9.3/armv7-m/libgcc.a(_aeabi_uldivmod.o)
__udivdi3                                         /usr/bin/../lib/gcc/arm-none-eabi/4.9.3/armv7-m/libgcc.a(_udivdi3.o)
                                                  /usr/bin/../lib/gcc/arm-none-eabi/4.9.3/armv7-m/libgcc.a(bpabi.o)
_bss                                              obj_cc2538dk/startup-gcc.o
_data                                             obj_cc2538dk/startup-gcc.o
_ebss                                             obj_cc2538dk/startup-gcc.o
_edata                                            obj_cc2538dk/startup-gcc.o
_ldata                                            obj_cc2538dk/startup-gcc.o
_text                                             obj_cc2538dk/startup-gcc.o
adc_get                                           contiki-cc2538dk.a(adc.o)
                                                  contiki-cc2538dk.a(vdd3-sensor.o)
                                                  contiki-cc2538dk.a(cc2538-temp-sen)
                                                  contiki-cc2538dk.a(als-sensor.o)
adc_init                                          contiki-cc2538dk.a(adc.o)
                                                  contiki-cc2538dk.a(contiki-main.o)
als_sensor                                        contiki-cc2538dk.a(als-sensor.o)
                                                  contiki-cc2538dk.a(smartrf-sensors)
autostart_exit                                    contiki-cc2538dk.a(autostart.o)
autostart_processes                               udp-server.co
                                                  contiki-cc2538dk.a(contiki-main.o)
autostart_start                                   contiki-cc2538dk.a(autostart.o)
                                                  contiki-cc2538dk.a(contiki-main.o)
button_down_sensor                                contiki-cc2538dk.a(button-sensor.o)
                                                  contiki-cc2538dk.a(smartrf-sensors)
button_left_sensor                                contiki-cc2538dk.a(button-sensor.o)
                                                  contiki-cc2538dk.a(smartrf-sensors)
button_right_sensor                               contiki-cc2538dk.a(button-sensor.o)
                                                  contiki-cc2538dk.a(smartrf-sensors)
button_select_sensor                              contiki-cc2538dk.a(button-sensor.o)
                                                  contiki-cc2538dk.a(smartrf-sensors)
                                                  udp-server.co
button_sensor_init                                contiki-cc2538dk.a(button-sensor.o)
                                                  contiki-cc2538dk.a(contiki-main.o)
button_up_sensor                                  contiki-cc2538dk.a(button-sensor.o)
                                                  contiki-cc2538dk.a(smartrf-sensors)
cc2538_rf_driver                                  contiki-cc2538dk.a(cc2538-rf.o)
                                                  contiki-cc2538dk.a(contikimac.o)
                                                  contiki-cc2538dk.a(netstack.o)
                                                  contiki-cc2538dk.a(contiki-main.o)
cc2538_rf_err_isr                                 contiki-cc2538dk.a(cc2538-rf.o)
                                                  obj_cc2538dk/startup-gcc.o
cc2538_rf_process                                 contiki-cc2538dk.a(cc2538-rf.o)
cc2538_rf_rx_tx_isr                               contiki-cc2538dk.a(cc2538-rf.o)
                                                  obj_cc2538dk/startup-gcc.o
cc2538_rf_set_promiscous_mode                     contiki-cc2538dk.a(cc2538-rf.o)
cc2538_temp_sensor                                contiki-cc2538dk.a(cc2538-temp-sen)
                                                  contiki-cc2538dk.a(smartrf-sensors)
clock_adjust                                      contiki-cc2538dk.a(clock.o)
                                                  contiki-cc2538dk.a(lpm.o)
clock_delay                                       contiki-cc2538dk.a(clock.o)
                                                  contiki-cc2538dk.a(leds.o)
clock_delay_usec                                  contiki-cc2538dk.a(clock.o)
                                                  contiki-cc2538dk.a(cc2538-rf.o)
                                                  contiki-cc2538dk.a(als-sensor.o)
clock_init                                        contiki-cc2538dk.a(clock.o)
                                                  contiki-cc2538dk.a(contiki-main.o)
clock_isr                                         contiki-cc2538dk.a(clock.o)
                                                  obj_cc2538dk/startup-gcc.o
clock_seconds                                     contiki-cc2538dk.a(clock.o)
                                                  contiki-cc2538dk.a(stimer.o)
clock_set_seconds                                 contiki-cc2538dk.a(clock.o)
clock_time                                        contiki-cc2538dk.a(clock.o)
                                                  contiki-cc2538dk.a(rpl-timers.o)
                                                  contiki-cc2538dk.a(rpl-dag.o)
                                                  contiki-cc2538dk.a(rpl.o)
                                                  contiki-cc2538dk.a(timer.o)
                                                  contiki-cc2538dk.a(etimer.o)
clock_wait                                        contiki-cc2538dk.a(clock.o)
contikimac_debug_print                            contiki-cc2538dk.a(contikimac.o)
contikimac_driver                                 contiki-cc2538dk.a(contikimac.o)
                                                  contiki-cc2538dk.a(csma.o)
                                                  contiki-cc2538dk.a(netstack.o)
                                                  contiki-cc2538dk.a(cc2538-rf.o)
                                                  contiki-cc2538dk.a(contiki-main.o)
cpu_cpsid                                         contiki-cc2538dk.a(cpu.o)
                                                  contiki-cc2538dk.a(watchdog.o)
                                                  contiki-cc2538dk.a(rtimer-arch.o)
cpu_cpsie                                         contiki-cc2538dk.a(cpu.o)
                                                  contiki-cc2538dk.a(rtimer-arch.o)
                                                  contiki-cc2538dk.a(contiki-main.o)
crypto_disable                                    contiki-cc2538dk.a(crypto.o)
crypto_enable                                     contiki-cc2538dk.a(crypto.o)
crypto_init                                       contiki-cc2538dk.a(crypto.o)
crypto_isr                                        contiki-cc2538dk.a(crypto.o)
                                                  obj_cc2538dk/startup-gcc.o
crypto_register_process_notification              contiki-cc2538dk.a(crypto.o)
csma_driver                                       contiki-cc2538dk.a(csma.o)
                                                  contiki-cc2538dk.a(nullsec.o)
                                                  contiki-cc2538dk.a(contikimac.o)
                                                  contiki-cc2538dk.a(netstack.o)
                                                  contiki-cc2538dk.a(contiki-main.o)
                                                  udp-server.co
ctimer_expired                                    contiki-cc2538dk.a(ctimer.o)
ctimer_init                                       contiki-cc2538dk.a(ctimer.o)
                                                  contiki-cc2538dk.a(contiki-main.o)
ctimer_process                                    contiki-cc2538dk.a(ctimer.o)
ctimer_reset                                      contiki-cc2538dk.a(ctimer.o)
                                                  contiki-cc2538dk.a(rpl-timers.o)
ctimer_restart                                    contiki-cc2538dk.a(ctimer.o)
ctimer_set                                        contiki-cc2538dk.a(ctimer.o)
                                                  contiki-cc2538dk.a(contikimac.o)
                                                  contiki-cc2538dk.a(csma.o)
                                                  contiki-cc2538dk.a(rpl-timers.o)
ctimer_stop                                       contiki-cc2538dk.a(ctimer.o)
                                                  contiki-cc2538dk.a(contikimac.o)
                                                  contiki-cc2538dk.a(csma.o)
                                                  contiki-cc2538dk.a(rpl-timers.o)
                                                  contiki-cc2538dk.a(rpl-dag.o)
dao_ack_output                                    contiki-cc2538dk.a(rpl-icmp6.o)
dao_output                                        contiki-cc2538dk.a(rpl-icmp6.o)
                                                  contiki-cc2538dk.a(rpl-timers.o)
                                                  contiki-cc2538dk.a(rpl-dag.o)
dao_output_target                                 contiki-cc2538dk.a(rpl-icmp6.o)
                                                  contiki-cc2538dk.a(rpl-ext-header.)
                                                  contiki-cc2538dk.a(rpl.o)
dbg_send_bytes                                    contiki-cc2538dk.a(dbg.o)
                                                  contiki-cc2538dk.a(dbg-printf.o)
default_handler                                   obj_cc2538dk/startup-gcc.o
default_instance                                  contiki-cc2538dk.a(rpl-dag.o)
                                                  contiki-cc2538dk.a(rpl-ext-header.)
                                                  contiki-cc2538dk.a(rpl.o)
dio_output                                        contiki-cc2538dk.a(rpl-icmp6.o)
                                                  contiki-cc2538dk.a(rpl-timers.o)
dis_output                                        contiki-cc2538dk.a(rpl-icmp6.o)
                                                  contiki-cc2538dk.a(rpl-timers.o)
ds6_neighbors                                     contiki-cc2538dk.a(uip-ds6-nbr.o)
                                                  contiki-cc2538dk.a(rpl-dag.o)
energest_flush                                    contiki-cc2538dk.a(energest.o)
energest_init                                     contiki-cc2538dk.a(energest.o)
                                                  contiki-cc2538dk.a(contiki-main.o)
energest_type_set                                 contiki-cc2538dk.a(energest.o)
energest_type_time                                contiki-cc2538dk.a(energest.o)
etimer_adjust                                     contiki-cc2538dk.a(etimer.o)
etimer_expiration_time                            contiki-cc2538dk.a(etimer.o)
                                                  contiki-cc2538dk.a(rpl-timers.o)
etimer_expired                                    contiki-cc2538dk.a(etimer.o)
                                                  contiki-cc2538dk.a(rpl-timers.o)
                                                  contiki-cc2538dk.a(tcpip.o)
                                                  contiki-cc2538dk.a(ctimer.o)
etimer_next_expiration_time                       contiki-cc2538dk.a(etimer.o)
etimer_pending                                    contiki-cc2538dk.a(etimer.o)
                                                  contiki-cc2538dk.a(clock.o)
etimer_process                                    contiki-cc2538dk.a(etimer.o)
                                                  contiki-cc2538dk.a(contiki-main.o)
etimer_request_poll                               contiki-cc2538dk.a(etimer.o)
                                                  contiki-cc2538dk.a(clock.o)
etimer_reset                                      contiki-cc2538dk.a(etimer.o)
                                                  contiki-cc2538dk.a(uip-ds6.o)
                                                  contiki-cc2538dk.a(ctimer.o)
etimer_restart                                    contiki-cc2538dk.a(etimer.o)
                                                  contiki-cc2538dk.a(tcpip.o)
                                                  contiki-cc2538dk.a(ctimer.o)
etimer_set                                        contiki-cc2538dk.a(etimer.o)
                                                  contiki-cc2538dk.a(tcpip.o)
                                                  contiki-cc2538dk.a(uip-ds6.o)
                                                  contiki-cc2538dk.a(ctimer.o)
etimer_start_time                                 contiki-cc2538dk.a(etimer.o)
etimer_stop                                       contiki-cc2538dk.a(etimer.o)
                                                  contiki-cc2538dk.a(ctimer.o)
format_str                                        contiki-cc2538dk.a(strformat.o)
format_str_v                                      contiki-cc2538dk.a(strformat.o)
                                                  contiki-cc2538dk.a(dbg-printf.o)
frag_sender                                       contiki-cc2538dk.a(sicslowpan.o)
frame802154_create                                contiki-cc2538dk.a(frame802154.o)
                                                  contiki-cc2538dk.a(framer-802154.o)
frame802154_hdrlen                                contiki-cc2538dk.a(frame802154.o)
                                                  contiki-cc2538dk.a(framer-802154.o)
frame802154_parse                                 contiki-cc2538dk.a(frame802154.o)
                                                  contiki-cc2538dk.a(framer-802154.o)
framer_802154                                     contiki-cc2538dk.a(framer-802154.o)
                                                  contiki-cc2538dk.a(contikimac.o)
                                                  contiki-cc2538dk.a(framer.o)
                                                  contiki-cc2538dk.a(sicslowpan.o)
framer_canonical_create_and_secure                contiki-cc2538dk.a(framer.o)
                                                  contiki-cc2538dk.a(framer-802154.o)
get_match_length                                  contiki-cc2538dk.a(uip-ds6.o)
gpio_init                                         contiki-cc2538dk.a(gpio.o)
                                                  contiki-cc2538dk.a(contiki-main.o)
gpio_port_a_isr                                   contiki-cc2538dk.a(gpio.o)
                                                  obj_cc2538dk/startup-gcc.o
gpio_port_b_isr                                   contiki-cc2538dk.a(gpio.o)
                                                  obj_cc2538dk/startup-gcc.o
gpio_port_c_isr                                   contiki-cc2538dk.a(gpio.o)
                                                  obj_cc2538dk/startup-gcc.o
gpio_port_d_isr                                   contiki-cc2538dk.a(gpio.o)
                                                  obj_cc2538dk/startup-gcc.o
gpio_register_callback                            contiki-cc2538dk.a(gpio.o)
                                                  contiki-cc2538dk.a(button-sensor.o)
icmp6_new                                         contiki-cc2538dk.a(tcpip.o)
ieee_addr_cpy_to                                  contiki-cc2538dk.a(ieee-addr.o)
                                                  contiki-cc2538dk.a(contiki-main.o)
instance_table                                    contiki-cc2538dk.a(rpl-dag.o)
                                                  contiki-cc2538dk.a(rpl-icmp6.o)
                                                  contiki-cc2538dk.a(rpl.o)
ioc_init                                          contiki-cc2538dk.a(ioc.o)
                                                  contiki-cc2538dk.a(contiki-main.o)
ioc_set_over                                      contiki-cc2538dk.a(ioc.o)
                                                  contiki-cc2538dk.a(uart.o)
                                                  contiki-cc2538dk.a(als-sensor.o)
                                                  contiki-cc2538dk.a(button-sensor.o)
ioc_set_sel                                       contiki-cc2538dk.a(ioc.o)
                                                  contiki-cc2538dk.a(uart.o)
leds_arch_get                                     contiki-cc2538dk.a(leds-arch.o)
                                                  contiki-cc2538dk.a(leds.o)
leds_arch_init                                    contiki-cc2538dk.a(leds-arch.o)
                                                  contiki-cc2538dk.a(leds.o)
leds_arch_set                                     contiki-cc2538dk.a(leds-arch.o)
                                                  contiki-cc2538dk.a(leds.o)
leds_blink                                        contiki-cc2538dk.a(leds.o)
leds_get                                          contiki-cc2538dk.a(leds.o)
leds_init                                         contiki-cc2538dk.a(leds.o)
                                                  contiki-cc2538dk.a(contiki-main.o)
leds_off                                          contiki-cc2538dk.a(leds.o)
                                                  contiki-cc2538dk.a(contiki-main.o)
leds_on                                           contiki-cc2538dk.a(leds.o)
                                                  contiki-cc2538dk.a(contiki-main.o)
leds_set                                          contiki-cc2538dk.a(leds.o)
leds_toggle                                       contiki-cc2538dk.a(leds.o)
linkaddr_cmp                                      contiki-cc2538dk.a(linkaddr.o)
                                                  contiki-cc2538dk.a(mac-sequence.o)
                                                  contiki-cc2538dk.a(contikimac.o)
                                                  contiki-cc2538dk.a(csma.o)
                                                  contiki-cc2538dk.a(packetbuf.o)
                                                  contiki-cc2538dk.a(nbr-table.o)
                                                  contiki-cc2538dk.a(uip-ds6-nbr.o)
                                                  contiki-cc2538dk.a(sicslowpan.o)
linkaddr_copy                                     contiki-cc2538dk.a(linkaddr.o)
                                                  contiki-cc2538dk.a(mac-sequence.o)
                                                  contiki-cc2538dk.a(frame802154.o)
                                                  contiki-cc2538dk.a(framer-802154.o)
                                                  contiki-cc2538dk.a(csma.o)
                                                  contiki-cc2538dk.a(packetbuf.o)
                                                  contiki-cc2538dk.a(nbr-table.o)
                                                  contiki-cc2538dk.a(sicslowpan.o)
linkaddr_node_addr                                contiki-cc2538dk.a(linkaddr.o)
                                                  contiki-cc2538dk.a(contikimac.o)
                                                  contiki-cc2538dk.a(framer-802154.o)
                                                  contiki-cc2538dk.a(contiki-main.o)
linkaddr_null                                     contiki-cc2538dk.a(linkaddr.o)
                                                  contiki-cc2538dk.a(frame802154.o)
                                                  contiki-cc2538dk.a(packetbuf.o)
                                                  contiki-cc2538dk.a(nbr-table.o)
                                                  contiki-cc2538dk.a(uip-ds6-nbr.o)
                                                  contiki-cc2538dk.a(sicslowpan.o)
linkaddr_set_node_addr                            contiki-cc2538dk.a(linkaddr.o)
list_add                                          contiki-cc2538dk.a(list.o)
                                                  contiki-cc2538dk.a(csma.o)
                                                  contiki-cc2538dk.a(nbr-table.o)
                                                  contiki-cc2538dk.a(uip-icmp6.o)
                                                  contiki-cc2538dk.a(uip-ds6-route.o)
                                                  contiki-cc2538dk.a(ctimer.o)
list_chop                                         contiki-cc2538dk.a(list.o)
list_copy                                         contiki-cc2538dk.a(list.o)
list_head                                         contiki-cc2538dk.a(list.o)
                                                  contiki-cc2538dk.a(csma.o)
                                                  contiki-cc2538dk.a(nbr-table.o)
                                                  contiki-cc2538dk.a(uip-icmp6.o)
                                                  contiki-cc2538dk.a(uip-ds6-route.o)
                                                  contiki-cc2538dk.a(ctimer.o)
list_init                                         contiki-cc2538dk.a(list.o)
                                                  contiki-cc2538dk.a(csma.o)
                                                  contiki-cc2538dk.a(uip-ds6-route.o)
                                                  contiki-cc2538dk.a(ctimer.o)
list_insert                                       contiki-cc2538dk.a(list.o)
list_item_next                                    contiki-cc2538dk.a(list.o)
                                                  contiki-cc2538dk.a(contikimac.o)
                                                  contiki-cc2538dk.a(csma.o)
                                                  contiki-cc2538dk.a(nbr-table.o)
                                                  contiki-cc2538dk.a(uip-icmp6.o)
                                                  contiki-cc2538dk.a(uip-ds6-route.o)
list_length                                       contiki-cc2538dk.a(list.o)
                                                  contiki-cc2538dk.a(csma.o)
                                                  contiki-cc2538dk.a(uip-ds6-route.o)
list_pop                                          contiki-cc2538dk.a(list.o)
list_push                                         contiki-cc2538dk.a(list.o)
                                                  contiki-cc2538dk.a(uip-ds6-route.o)
list_remove                                       contiki-cc2538dk.a(list.o)
                                                  contiki-cc2538dk.a(csma.o)
                                                  contiki-cc2538dk.a(nbr-table.o)
                                                  contiki-cc2538dk.a(uip-icmp6.o)
                                                  contiki-cc2538dk.a(uip-ds6-route.o)
                                                  contiki-cc2538dk.a(ctimer.o)
list_tail                                         contiki-cc2538dk.a(list.o)
                                                  contiki-cc2538dk.a(uip-ds6-route.o)
llprefix                                          contiki-cc2538dk.a(sicslowpan.o)
lpm_enter                                         contiki-cc2538dk.a(lpm.o)
                                                  contiki-cc2538dk.a(contiki-main.o)
lpm_exit                                          contiki-cc2538dk.a(lpm.o)
                                                  contiki-cc2538dk.a(gpio.o)
                                                  contiki-cc2538dk.a(rtimer-arch.o)
lpm_init                                          contiki-cc2538dk.a(lpm.o)
                                                  contiki-cc2538dk.a(contiki-main.o)
lpm_register_peripheral                           contiki-cc2538dk.a(lpm.o)
                                                  contiki-cc2538dk.a(crypto.o)
                                                  contiki-cc2538dk.a(uart.o)
lpm_set_max_pm                                    contiki-cc2538dk.a(lpm.o)
mac_call_sent_callback                            contiki-cc2538dk.a(mac.o)
                                                  contiki-cc2538dk.a(contikimac.o)
                                                  contiki-cc2538dk.a(csma.o)
mac_sequence_is_duplicate                         contiki-cc2538dk.a(mac-sequence.o)
                                                  contiki-cc2538dk.a(contikimac.o)
mac_sequence_register_seqno                       contiki-cc2538dk.a(mac-sequence.o)
                                                  contiki-cc2538dk.a(contikimac.o)
main                                              contiki-cc2538dk.a(contiki-main.o)
                                                  obj_cc2538dk/startup-gcc.o
memb_alloc                                        contiki-cc2538dk.a(memb.o)
                                                  contiki-cc2538dk.a(csma.o)
                                                  contiki-cc2538dk.a(queuebuf.o)
                                                  contiki-cc2538dk.a(nbr-table.o)
                                                  contiki-cc2538dk.a(uip-ds6-route.o)
memb_free                                         contiki-cc2538dk.a(memb.o)
                                                  contiki-cc2538dk.a(csma.o)
                                                  contiki-cc2538dk.a(queuebuf.o)
                                                  contiki-cc2538dk.a(uip-ds6-route.o)
memb_init                                         contiki-cc2538dk.a(memb.o)
                                                  contiki-cc2538dk.a(csma.o)
                                                  contiki-cc2538dk.a(queuebuf.o)
                                                  contiki-cc2538dk.a(uip-ds6-route.o)
memb_inmemb                                       contiki-cc2538dk.a(memb.o)
                                                  contiki-cc2538dk.a(queuebuf.o)
memb_numfree                                      contiki-cc2538dk.a(memb.o)
                                                  contiki-cc2538dk.a(queuebuf.o)
memcmp                                            /usr/bin/../lib/gcc/arm-none-eabi/4.9.3/../../../../arm-none-eabi/lib/armv7-m/libc.a(lib_a-memcmp.o)
                                                  contiki-cc2538dk.a(linkaddr.o)
                                                  contiki-cc2538dk.a(rpl-icmp6.o)
                                                  contiki-cc2538dk.a(rpl-dag.o)
                                                  contiki-cc2538dk.a(rpl.o)
                                                  contiki-cc2538dk.a(uip-nd6.o)
                                                  contiki-cc2538dk.a(uip-ds6-route.o)
                                                  contiki-cc2538dk.a(uip-ds6-nbr.o)
                                                  contiki-cc2538dk.a(uip-ds6.o)
                                                  contiki-cc2538dk.a(uip6.o)
                                                  contiki-cc2538dk.a(sicslowpan.o)
memcpy                                            /usr/bin/../lib/gcc/arm-none-eabi/4.9.3/../../../../arm-none-eabi/lib/armv7-m/libc.a(lib_a-memcpy.o)
                                                  contiki-cc2538dk.a(packetbuf.o)
                                                  contiki-cc2538dk.a(rpl-icmp6.o)
                                                  contiki-cc2538dk.a(rpl-dag.o)
                                                  contiki-cc2538dk.a(uip6.o)
                                                  contiki-cc2538dk.a(sicslowpan.o)
memmove                                           /usr/bin/../lib/gcc/arm-none-eabi/4.9.3/../../../../arm-none-eabi/lib/armv7-m/libc.a(lib_a-memmove.o)
                                                  contiki-cc2538dk.a(rpl-ext-header.)
                                                  contiki-cc2538dk.a(uip-icmp6.o)
                                                  contiki-cc2538dk.a(uip6.o)
                                                  contiki-cc2538dk.a(sicslowpan.o)
memset                                            /usr/bin/../lib/gcc/arm-none-eabi/4.9.3/../../../../arm-none-eabi/lib/armv7-m/libc.a(lib_a-memset.o)
                                                  contiki-cc2538dk.a(frame802154.o)
                                                  contiki-cc2538dk.a(memb.o)
                                                  contiki-cc2538dk.a(framer-802154.o)
                                                  contiki-cc2538dk.a(nbr-table.o)
                                                  contiki-cc2538dk.a(rpl-icmp6.o)
                                                  contiki-cc2538dk.a(rpl-dag.o)
                                                  contiki-cc2538dk.a(uip-nd6.o)
                                                  contiki-cc2538dk.a(uip-ds6-route.o)
                                                  contiki-cc2538dk.a(uip-ds6.o)
                                                  contiki-cc2538dk.a(uip6.o)
                                                  contiki-cc2538dk.a(sicslowpan.o)
                                                  contiki-cc2538dk.a(udma.o)
                                                  contiki-cc2538dk.a(gpio.o)
nbr_table_add_lladdr                              contiki-cc2538dk.a(nbr-table.o)
                                                  contiki-cc2538dk.a(rpl-dag.o)
                                                  contiki-cc2538dk.a(uip-ds6-route.o)
                                                  contiki-cc2538dk.a(uip-ds6-nbr.o)
nbr_table_get_from_lladdr                         contiki-cc2538dk.a(nbr-table.o)
                                                  contiki-cc2538dk.a(rpl-dag.o)
                                                  contiki-cc2538dk.a(uip-ds6-route.o)
                                                  contiki-cc2538dk.a(uip-ds6-nbr.o)
nbr_table_get_lladdr                              contiki-cc2538dk.a(nbr-table.o)
                                                  contiki-cc2538dk.a(rpl-dag.o)
                                                  contiki-cc2538dk.a(uip-ds6-route.o)
                                                  contiki-cc2538dk.a(uip-ds6-nbr.o)
nbr_table_head                                    contiki-cc2538dk.a(nbr-table.o)
                                                  contiki-cc2538dk.a(rpl-timers.o)
                                                  contiki-cc2538dk.a(rpl-dag.o)
                                                  contiki-cc2538dk.a(uip-ds6-nbr.o)
nbr_table_lock                                    contiki-cc2538dk.a(nbr-table.o)
                                                  contiki-cc2538dk.a(rpl-dag.o)
nbr_table_next                                    contiki-cc2538dk.a(nbr-table.o)
                                                  contiki-cc2538dk.a(rpl-timers.o)
                                                  contiki-cc2538dk.a(rpl-dag.o)
                                                  contiki-cc2538dk.a(uip-ds6-nbr.o)
nbr_table_register                                contiki-cc2538dk.a(nbr-table.o)
                                                  contiki-cc2538dk.a(rpl-dag.o)
                                                  contiki-cc2538dk.a(uip-ds6-route.o)
                                                  contiki-cc2538dk.a(uip-ds6-nbr.o)
nbr_table_remove                                  contiki-cc2538dk.a(nbr-table.o)
                                                  contiki-cc2538dk.a(rpl-dag.o)
                                                  contiki-cc2538dk.a(uip-ds6-route.o)
                                                  contiki-cc2538dk.a(uip-ds6-nbr.o)
nbr_table_unlock                                  contiki-cc2538dk.a(nbr-table.o)
                                                  contiki-cc2538dk.a(rpl-dag.o)
netstack_init                                     contiki-cc2538dk.a(netstack.o)
                                                  contiki-cc2538dk.a(contiki-main.o)
nmi_handler                                       obj_cc2538dk/startup-gcc.o
notify                                            contiki-cc2538dk.a(gpio.o)
nullsec_driver                                    contiki-cc2538dk.a(nullsec.o)
                                                  contiki-cc2538dk.a(framer.o)
                                                  contiki-cc2538dk.a(csma.o)
                                                  contiki-cc2538dk.a(sicslowpan.o)
nvic_init                                         contiki-cc2538dk.a(nvic.o)
                                                  contiki-cc2538dk.a(contiki-main.o)
nvic_interrupt_disable                            contiki-cc2538dk.a(nvic.o)
                                                  contiki-cc2538dk.a(crypto.o)
                                                  contiki-cc2538dk.a(rtimer-arch.o)
nvic_interrupt_en_restore                         contiki-cc2538dk.a(nvic.o)
nvic_interrupt_en_save                            contiki-cc2538dk.a(nvic.o)
nvic_interrupt_enable                             contiki-cc2538dk.a(nvic.o)
                                                  contiki-cc2538dk.a(udma.o)
                                                  contiki-cc2538dk.a(cc2538-rf.o)
                                                  contiki-cc2538dk.a(uart.o)
                                                  contiki-cc2538dk.a(rtimer-arch.o)
                                                  contiki-cc2538dk.a(button-sensor.o)
nvic_interrupt_pend                               contiki-cc2538dk.a(nvic.o)
nvic_interrupt_unpend                             contiki-cc2538dk.a(nvic.o)
                                                  contiki-cc2538dk.a(crypto.o)
                                                  contiki-cc2538dk.a(rtimer-arch.o)
packetbuf_addr                                    contiki-cc2538dk.a(packetbuf.o)
                                                  contiki-cc2538dk.a(mac-sequence.o)
                                                  contiki-cc2538dk.a(contikimac.o)
                                                  contiki-cc2538dk.a(framer-802154.o)
                                                  contiki-cc2538dk.a(csma.o)
                                                  contiki-cc2538dk.a(rpl-icmp6.o)
                                                  contiki-cc2538dk.a(rpl-ext-header.)
                                                  contiki-cc2538dk.a(uip-ds6-nbr.o)
                                                  contiki-cc2538dk.a(sicslowpan.o)
packetbuf_addrs                                   contiki-cc2538dk.a(packetbuf.o)
packetbuf_attr                                    contiki-cc2538dk.a(packetbuf.o)
                                                  contiki-cc2538dk.a(mac-sequence.o)
                                                  contiki-cc2538dk.a(contikimac.o)
                                                  contiki-cc2538dk.a(framer-802154.o)
                                                  contiki-cc2538dk.a(csma.o)
                                                  contiki-cc2538dk.a(sicslowpan.o)
packetbuf_attr_clear                              contiki-cc2538dk.a(packetbuf.o)
packetbuf_attr_copyfrom                           contiki-cc2538dk.a(packetbuf.o)
                                                  contiki-cc2538dk.a(queuebuf.o)
packetbuf_attr_copyto                             contiki-cc2538dk.a(packetbuf.o)
                                                  contiki-cc2538dk.a(queuebuf.o)
packetbuf_attrs                                   contiki-cc2538dk.a(packetbuf.o)
packetbuf_clear                                   contiki-cc2538dk.a(packetbuf.o)
                                                  contiki-cc2538dk.a(sicslowpan.o)
                                                  contiki-cc2538dk.a(cc2538-rf.o)
packetbuf_clear_hdr                               contiki-cc2538dk.a(packetbuf.o)
packetbuf_compact                                 contiki-cc2538dk.a(packetbuf.o)
                                                  contiki-cc2538dk.a(framer.o)
packetbuf_copyfrom                                contiki-cc2538dk.a(packetbuf.o)
                                                  contiki-cc2538dk.a(queuebuf.o)
packetbuf_copyto                                  contiki-cc2538dk.a(packetbuf.o)
                                                  contiki-cc2538dk.a(queuebuf.o)
packetbuf_copyto_hdr                              contiki-cc2538dk.a(packetbuf.o)
packetbuf_datalen                                 contiki-cc2538dk.a(packetbuf.o)
                                                  contiki-cc2538dk.a(contikimac.o)
                                                  contiki-cc2538dk.a(framer-802154.o)
                                                  contiki-cc2538dk.a(sicslowpan.o)
packetbuf_dataptr                                 contiki-cc2538dk.a(packetbuf.o)
                                                  contiki-cc2538dk.a(framer-802154.o)
                                                  contiki-cc2538dk.a(sicslowpan.o)
                                                  contiki-cc2538dk.a(cc2538-rf.o)
packetbuf_hdr_remove                              contiki-cc2538dk.a(packetbuf.o)
packetbuf_hdralloc                                contiki-cc2538dk.a(packetbuf.o)
                                                  contiki-cc2538dk.a(framer-802154.o)
packetbuf_hdrlen                                  contiki-cc2538dk.a(packetbuf.o)
packetbuf_hdrptr                                  contiki-cc2538dk.a(packetbuf.o)
                                                  contiki-cc2538dk.a(contikimac.o)
                                                  contiki-cc2538dk.a(framer-802154.o)
packetbuf_hdrreduce                               contiki-cc2538dk.a(packetbuf.o)
                                                  contiki-cc2538dk.a(framer-802154.o)
packetbuf_holds_broadcast                         contiki-cc2538dk.a(packetbuf.o)
                                                  contiki-cc2538dk.a(contikimac.o)
                                                  contiki-cc2538dk.a(framer-802154.o)
packetbuf_set_addr                                contiki-cc2538dk.a(packetbuf.o)
                                                  contiki-cc2538dk.a(contikimac.o)
                                                  contiki-cc2538dk.a(framer-802154.o)
                                                  contiki-cc2538dk.a(sicslowpan.o)
packetbuf_set_attr                                contiki-cc2538dk.a(packetbuf.o)
                                                  contiki-cc2538dk.a(nullsec.o)
                                                  contiki-cc2538dk.a(contikimac.o)
                                                  contiki-cc2538dk.a(framer-802154.o)
                                                  contiki-cc2538dk.a(csma.o)
                                                  contiki-cc2538dk.a(sicslowpan.o)
                                                  contiki-cc2538dk.a(cc2538-rf.o)
packetbuf_set_datalen                             contiki-cc2538dk.a(packetbuf.o)
                                                  contiki-cc2538dk.a(sicslowpan.o)
                                                  contiki-cc2538dk.a(cc2538-rf.o)
packetbuf_totlen                                  contiki-cc2538dk.a(packetbuf.o)
                                                  contiki-cc2538dk.a(contikimac.o)
printf                                            contiki-cc2538dk.a(dbg-printf.o)
                                                  contiki-cc2538dk.a(rpl-dag.o)
                                                  contiki-cc2538dk.a(uip-debug.o)
                                                  contiki-cc2538dk.a(contiki-main.o)
                                                  udp-server.co
process_alloc_event                               contiki-cc2538dk.a(process.o)
                                                  contiki-cc2538dk.a(tcpip.o)
                                                  contiki-cc2538dk.a(serial-line.o)
                                                  contiki-cc2538dk.a(sensors.o)
process_current                                   contiki-cc2538dk.a(process.o)
                                                  contiki-cc2538dk.a(tcpip.o)
                                                  contiki-cc2538dk.a(serial-line.o)
                                                  contiki-cc2538dk.a(etimer.o)
                                                  contiki-cc2538dk.a(ctimer.o)
                                                  udp-server.co
process_exit                                      contiki-cc2538dk.a(process.o)
                                                  contiki-cc2538dk.a(autostart.o)
process_init                                      contiki-cc2538dk.a(process.o)
                                                  contiki-cc2538dk.a(contiki-main.o)
process_is_running                                contiki-cc2538dk.a(process.o)
process_list                                      contiki-cc2538dk.a(process.o)
process_nevents                                   contiki-cc2538dk.a(process.o)
                                                  contiki-cc2538dk.a(lpm.o)
process_poll                                      contiki-cc2538dk.a(process.o)
                                                  contiki-cc2538dk.a(serial-line.o)
                                                  contiki-cc2538dk.a(etimer.o)
                                                  contiki-cc2538dk.a(cc2538-rf.o)
                                                  contiki-cc2538dk.a(crypto.o)
                                                  contiki-cc2538dk.a(sensors.o)
process_post                                      contiki-cc2538dk.a(process.o)
                                                  contiki-cc2538dk.a(tcpip.o)
                                                  contiki-cc2538dk.a(serial-line.o)
                                                  contiki-cc2538dk.a(etimer.o)
                                                  contiki-cc2538dk.a(sensors.o)
                                                  udp-server.co
process_post_synch                                contiki-cc2538dk.a(process.o)
                                                  contiki-cc2538dk.a(tcpip.o)
process_run                                       contiki-cc2538dk.a(process.o)
                                                  contiki-cc2538dk.a(contiki-main.o)
process_start                                     contiki-cc2538dk.a(process.o)
                                                  contiki-cc2538dk.a(serial-line.o)
                                                  contiki-cc2538dk.a(ctimer.o)
                                                  contiki-cc2538dk.a(autostart.o)
                                                  contiki-cc2538dk.a(cc2538-rf.o)
                                                  contiki-cc2538dk.a(contiki-main.o)
putchar                                           contiki-cc2538dk.a(dbg.o)
                                                  contiki-cc2538dk.a(uip-debug.o)
                                                  udp-server.co
puts                                              contiki-cc2538dk.a(dbg.o)
                                                  contiki-cc2538dk.a(rpl-dag.o)
                                                  contiki-cc2538dk.a(contiki-main.o)
                                                  udp-server.co
queuebuf_addr                                     contiki-cc2538dk.a(queuebuf.o)
queuebuf_attr                                     contiki-cc2538dk.a(queuebuf.o)
                                                  contiki-cc2538dk.a(csma.o)
queuebuf_datalen                                  contiki-cc2538dk.a(queuebuf.o)
queuebuf_dataptr                                  contiki-cc2538dk.a(queuebuf.o)
queuebuf_debug_print                              contiki-cc2538dk.a(queuebuf.o)
queuebuf_free                                     contiki-cc2538dk.a(queuebuf.o)
                                                  contiki-cc2538dk.a(csma.o)
                                                  contiki-cc2538dk.a(sicslowpan.o)
queuebuf_init                                     contiki-cc2538dk.a(queuebuf.o)
                                                  contiki-cc2538dk.a(contiki-main.o)
queuebuf_new_from_packetbuf                       contiki-cc2538dk.a(queuebuf.o)
                                                  contiki-cc2538dk.a(csma.o)
                                                  contiki-cc2538dk.a(sicslowpan.o)
queuebuf_numfree                                  contiki-cc2538dk.a(queuebuf.o)
                                                  contiki-cc2538dk.a(sicslowpan.o)
queuebuf_to_packetbuf                             contiki-cc2538dk.a(queuebuf.o)
                                                  contiki-cc2538dk.a(contikimac.o)
                                                  contiki-cc2538dk.a(sicslowpan.o)
queuebuf_update_attr_from_packetbuf               contiki-cc2538dk.a(queuebuf.o)
                                                  contiki-cc2538dk.a(csma.o)
queuebuf_update_from_packetbuf                    contiki-cc2538dk.a(queuebuf.o)
                                                  contiki-cc2538dk.a(contikimac.o)
random_init                                       contiki-cc2538dk.a(random.o)
                                                  contiki-cc2538dk.a(contiki-main.o)
random_rand                                       contiki-cc2538dk.a(random.o)
                                                  contiki-cc2538dk.a(framer-802154.o)
                                                  contiki-cc2538dk.a(csma.o)
                                                  contiki-cc2538dk.a(rpl-timers.o)
                                                  contiki-cc2538dk.a(uip-ds6.o)
remove_ext_hdr                                    contiki-cc2538dk.a(uip6.o)
reset_handler                                     obj_cc2538dk/startup-gcc.o
rime_sniffer_add                                  contiki-cc2538dk.a(sicslowpan.o)
rime_sniffer_remove                               contiki-cc2538dk.a(sicslowpan.o)
ringbuf_elements                                  contiki-cc2538dk.a(ringbuf.o)
ringbuf_get                                       contiki-cc2538dk.a(ringbuf.o)
                                                  contiki-cc2538dk.a(serial-line.o)
ringbuf_init                                      contiki-cc2538dk.a(ringbuf.o)
                                                  contiki-cc2538dk.a(serial-line.o)
ringbuf_put                                       contiki-cc2538dk.a(ringbuf.o)
                                                  contiki-cc2538dk.a(serial-line.o)
ringbuf_size                                      contiki-cc2538dk.a(ringbuf.o)
rpl_add_dag                                       contiki-cc2538dk.a(rpl-dag.o)
rpl_add_parent                                    contiki-cc2538dk.a(rpl-dag.o)
rpl_add_route                                     contiki-cc2538dk.a(rpl.o)
                                                  contiki-cc2538dk.a(rpl-icmp6.o)
rpl_alloc_dag                                     contiki-cc2538dk.a(rpl-dag.o)
rpl_alloc_instance                                contiki-cc2538dk.a(rpl-dag.o)
rpl_cancel_dao                                    contiki-cc2538dk.a(rpl-timers.o)
                                                  contiki-cc2538dk.a(rpl.o)
rpl_dag_init                                      contiki-cc2538dk.a(rpl-dag.o)
                                                  contiki-cc2538dk.a(rpl.o)
rpl_find_of                                       contiki-cc2538dk.a(rpl-dag.o)
rpl_find_parent                                   contiki-cc2538dk.a(rpl-dag.o)
                                                  contiki-cc2538dk.a(rpl-icmp6.o)
                                                  contiki-cc2538dk.a(rpl-ext-header.)
rpl_find_parent_any_dag                           contiki-cc2538dk.a(rpl-dag.o)
                                                  contiki-cc2538dk.a(rpl.o)
rpl_free_dag                                      contiki-cc2538dk.a(rpl-dag.o)
rpl_free_instance                                 contiki-cc2538dk.a(rpl-dag.o)
rpl_get_any_dag                                   contiki-cc2538dk.a(rpl-dag.o)
                                                  contiki-cc2538dk.a(rpl-timers.o)
rpl_get_default_instance                          contiki-cc2538dk.a(rpl-dag.o)
rpl_get_instance                                  contiki-cc2538dk.a(rpl-dag.o)
                                                  contiki-cc2538dk.a(rpl-icmp6.o)
                                                  contiki-cc2538dk.a(rpl-ext-header.)
rpl_get_mode                                      contiki-cc2538dk.a(rpl.o)
                                                  contiki-cc2538dk.a(rpl-timers.o)
                                                  contiki-cc2538dk.a(rpl-icmp6.o)
rpl_get_nbr                                       contiki-cc2538dk.a(rpl-dag.o)
                                                  contiki-cc2538dk.a(rpl-mrhof.o)
rpl_get_parent                                    contiki-cc2538dk.a(rpl-dag.o)
                                                  contiki-cc2538dk.a(rpl-ext-header.)
rpl_get_parent_ipaddr                             contiki-cc2538dk.a(rpl-dag.o)
                                                  contiki-cc2538dk.a(rpl-timers.o)
                                                  contiki-cc2538dk.a(rpl-icmp6.o)
rpl_get_parent_link_metric                        contiki-cc2538dk.a(rpl-dag.o)
rpl_get_parent_rank                               contiki-cc2538dk.a(rpl-dag.o)
rpl_icmp6_register_handlers                       contiki-cc2538dk.a(rpl-icmp6.o)
                                                  contiki-cc2538dk.a(rpl.o)
rpl_init                                          contiki-cc2538dk.a(rpl.o)
                                                  contiki-cc2538dk.a(tcpip.o)
rpl_insert_header                                 contiki-cc2538dk.a(rpl-ext-header.)
                                                  contiki-cc2538dk.a(uip6.o)
rpl_invert_header                                 contiki-cc2538dk.a(rpl-ext-header.)
                                                  contiki-cc2538dk.a(uip-icmp6.o)
rpl_ipv6_neighbor_callback                        contiki-cc2538dk.a(rpl.o)
                                                  contiki-cc2538dk.a(uip-ds6-nbr.o)
rpl_join_instance                                 contiki-cc2538dk.a(rpl-dag.o)
rpl_link_neighbor_callback                        contiki-cc2538dk.a(rpl.o)
                                                  contiki-cc2538dk.a(uip-ds6-nbr.o)
rpl_local_repair                                  contiki-cc2538dk.a(rpl-dag.o)
rpl_lock_parent                                   contiki-cc2538dk.a(rpl-dag.o)
                                                  contiki-cc2538dk.a(rpl-icmp6.o)
rpl_move_parent                                   contiki-cc2538dk.a(rpl-dag.o)
rpl_mrhof                                         contiki-cc2538dk.a(rpl-mrhof.o)
                                                  contiki-cc2538dk.a(rpl-icmp6.o)
                                                  contiki-cc2538dk.a(rpl-dag.o)
                                                  contiki-cc2538dk.a(rpl.o)
rpl_nullify_parent                                contiki-cc2538dk.a(rpl-dag.o)
rpl_parents                                       contiki-cc2538dk.a(rpl-dag.o)
                                                  contiki-cc2538dk.a(rpl-timers.o)
rpl_print_neighbor_list                           contiki-cc2538dk.a(rpl-dag.o)
rpl_process_dio                                   contiki-cc2538dk.a(rpl-dag.o)
                                                  contiki-cc2538dk.a(rpl-icmp6.o)
rpl_process_parent_event                          contiki-cc2538dk.a(rpl-dag.o)
rpl_purge_routes                                  contiki-cc2538dk.a(rpl.o)
                                                  contiki-cc2538dk.a(rpl-timers.o)
rpl_recalculate_ranks                             contiki-cc2538dk.a(rpl-dag.o)
                                                  contiki-cc2538dk.a(rpl-timers.o)
rpl_remove_header                                 contiki-cc2538dk.a(rpl-ext-header.)
rpl_remove_parent                                 contiki-cc2538dk.a(rpl-dag.o)
rpl_remove_routes                                 contiki-cc2538dk.a(rpl.o)
                                                  contiki-cc2538dk.a(rpl-dag.o)
rpl_remove_routes_by_nexthop                      contiki-cc2538dk.a(rpl.o)
                                                  contiki-cc2538dk.a(rpl-dag.o)
rpl_repair_root                                   contiki-cc2538dk.a(rpl-dag.o)
                                                  contiki-cc2538dk.a(tcpip.o)
                                                  udp-server.co
rpl_reset_dio_timer                               contiki-cc2538dk.a(rpl-timers.o)
                                                  contiki-cc2538dk.a(rpl-icmp6.o)
                                                  contiki-cc2538dk.a(rpl-ext-header.)
                                                  contiki-cc2538dk.a(rpl-dag.o)
rpl_reset_periodic_timer                          contiki-cc2538dk.a(rpl-timers.o)
                                                  contiki-cc2538dk.a(rpl.o)
rpl_schedule_dao                                  contiki-cc2538dk.a(rpl-timers.o)
                                                  contiki-cc2538dk.a(rpl-dag.o)
rpl_schedule_dao_immediately                      contiki-cc2538dk.a(rpl-timers.o)
                                                  contiki-cc2538dk.a(rpl.o)
rpl_schedule_probing                              contiki-cc2538dk.a(rpl-timers.o)
                                                  contiki-cc2538dk.a(rpl-dag.o)
rpl_select_dag                                    contiki-cc2538dk.a(rpl-dag.o)
rpl_select_parent                                 contiki-cc2538dk.a(rpl-dag.o)
rpl_set_default_instance                          contiki-cc2538dk.a(rpl-dag.o)
rpl_set_default_route                             contiki-cc2538dk.a(rpl-dag.o)
rpl_set_mode                                      contiki-cc2538dk.a(rpl.o)
rpl_set_prefix                                    contiki-cc2538dk.a(rpl-dag.o)
                                                  udp-server.co
rpl_set_root                                      contiki-cc2538dk.a(rpl-dag.o)
                                                  udp-server.co
rpl_update_header_empty                           contiki-cc2538dk.a(rpl-ext-header.)
                                                  contiki-cc2538dk.a(uip6.o)
rpl_update_header_final                           contiki-cc2538dk.a(rpl-ext-header.)
                                                  contiki-cc2538dk.a(tcpip.o)
rpl_verify_header                                 contiki-cc2538dk.a(rpl-ext-header.)
                                                  contiki-cc2538dk.a(uip6.o)
rtimer_arch_init                                  contiki-cc2538dk.a(rtimer-arch.o)
                                                  contiki-cc2538dk.a(rtimer.o)
rtimer_arch_next_trigger                          contiki-cc2538dk.a(rtimer-arch.o)
                                                  contiki-cc2538dk.a(lpm.o)
rtimer_arch_now                                   contiki-cc2538dk.a(rtimer-arch.o)
                                                  contiki-cc2538dk.a(contikimac.o)
                                                  contiki-cc2538dk.a(lpm.o)
                                                  contiki-cc2538dk.a(cc2538-rf.o)
                                                  contiki-cc2538dk.a(clock.o)
rtimer_arch_schedule                              contiki-cc2538dk.a(rtimer-arch.o)
                                                  contiki-cc2538dk.a(rtimer.o)
rtimer_init                                       contiki-cc2538dk.a(rtimer.o)
                                                  contiki-cc2538dk.a(contiki-main.o)
rtimer_isr                                        contiki-cc2538dk.a(rtimer-arch.o)
                                                  obj_cc2538dk/startup-gcc.o
rtimer_run_next                                   contiki-cc2538dk.a(rtimer.o)
                                                  contiki-cc2538dk.a(rtimer-arch.o)
rtimer_set                                        contiki-cc2538dk.a(rtimer.o)
                                                  contiki-cc2538dk.a(contikimac.o)
sensors                                           contiki-cc2538dk.a(smartrf-sensors)
                                                  contiki-cc2538dk.a(sensors.o)
sensors_changed                                   contiki-cc2538dk.a(sensors.o)
                                                  contiki-cc2538dk.a(button-sensor.o)
sensors_event                                     contiki-cc2538dk.a(sensors.o)
                                                  udp-server.co
sensors_find                                      contiki-cc2538dk.a(sensors.o)
sensors_first                                     contiki-cc2538dk.a(sensors.o)
sensors_flags                                     contiki-cc2538dk.a(smartrf-sensors)
                                                  contiki-cc2538dk.a(sensors.o)
sensors_next                                      contiki-cc2538dk.a(sensors.o)
sensors_process                                   contiki-cc2538dk.a(sensors.o)
                                                  contiki-cc2538dk.a(contiki-main.o)
serial_line_event_message                         contiki-cc2538dk.a(serial-line.o)
serial_line_init                                  contiki-cc2538dk.a(serial-line.o)
                                                  contiki-cc2538dk.a(contiki-main.o)
serial_line_input_byte                            contiki-cc2538dk.a(serial-line.o)
                                                  contiki-cc2538dk.a(contiki-main.o)
serial_line_process                               contiki-cc2538dk.a(serial-line.o)
sicslowpan_driver                                 contiki-cc2538dk.a(sicslowpan.o)
                                                  contiki-cc2538dk.a(nullsec.o)
                                                  contiki-cc2538dk.a(netstack.o)
                                                  contiki-cc2538dk.a(contiki-main.o)
sicslowpan_get_last_rssi                          contiki-cc2538dk.a(sicslowpan.o)
sicslowpan_init                                   contiki-cc2538dk.a(sicslowpan.o)
stimer_elapsed                                    contiki-cc2538dk.a(stimer.o)
stimer_expired                                    contiki-cc2538dk.a(stimer.o)
                                                  contiki-cc2538dk.a(uip-ds6-route.o)
                                                  contiki-cc2538dk.a(uip-ds6-nbr.o)
                                                  contiki-cc2538dk.a(uip-ds6.o)
stimer_remaining                                  contiki-cc2538dk.a(stimer.o)
                                                  contiki-cc2538dk.a(uip-ds6-nbr.o)
stimer_reset                                      contiki-cc2538dk.a(stimer.o)
stimer_restart                                    contiki-cc2538dk.a(stimer.o)
stimer_set                                        contiki-cc2538dk.a(stimer.o)
                                                  contiki-cc2538dk.a(rpl-icmp6.o)
                                                  contiki-cc2538dk.a(tcpip.o)
                                                  contiki-cc2538dk.a(uip-nd6.o)
                                                  contiki-cc2538dk.a(uip-ds6-route.o)
                                                  contiki-cc2538dk.a(uip-ds6-nbr.o)
                                                  contiki-cc2538dk.a(uip-ds6.o)
strlen                                            /usr/bin/../lib/gcc/arm-none-eabi/4.9.3/../../../../arm-none-eabi/lib/armv7-m/libc.a(lib_a-strlen.o)
                                                  contiki-cc2538dk.a(sensors.o)
strncmp                                           /usr/bin/../lib/gcc/arm-none-eabi/4.9.3/../../../../arm-none-eabi/lib/armv7-m/libc.a(lib_a-strncmp.o)
                                                  contiki-cc2538dk.a(sensors.o)
sys_ctrl_get_io_clock                             contiki-cc2538dk.a(sys-ctrl.o)
sys_ctrl_get_sys_clock                            contiki-cc2538dk.a(sys-ctrl.o)
sys_ctrl_init                                     contiki-cc2538dk.a(sys-ctrl.o)
                                                  contiki-cc2538dk.a(contiki-main.o)
sys_ctrl_reset                                    contiki-cc2538dk.a(sys-ctrl.o)
tcp_attach                                        contiki-cc2538dk.a(tcpip.o)
tcp_connect                                       contiki-cc2538dk.a(tcpip.o)
tcp_listen                                        contiki-cc2538dk.a(tcpip.o)
tcp_unlisten                                      contiki-cc2538dk.a(tcpip.o)
tcpip_event                                       contiki-cc2538dk.a(tcpip.o)
                                                  udp-server.co
tcpip_icmp6_call                                  contiki-cc2538dk.a(tcpip.o)
                                                  contiki-cc2538dk.a(uip6.o)
tcpip_icmp6_event                                 contiki-cc2538dk.a(tcpip.o)
tcpip_input                                       contiki-cc2538dk.a(tcpip.o)
                                                  contiki-cc2538dk.a(sicslowpan.o)
tcpip_ipv6_output                                 contiki-cc2538dk.a(tcpip.o)
                                                  contiki-cc2538dk.a(uip-icmp6.o)
tcpip_output                                      contiki-cc2538dk.a(tcpip.o)
tcpip_poll_tcp                                    contiki-cc2538dk.a(tcpip.o)
tcpip_poll_udp                                    contiki-cc2538dk.a(tcpip.o)
tcpip_process                                     contiki-cc2538dk.a(tcpip.o)
                                                  contiki-cc2538dk.a(contiki-main.o)
tcpip_set_outputfunc                              contiki-cc2538dk.a(tcpip.o)
                                                  contiki-cc2538dk.a(sicslowpan.o)
tcpip_uipcall                                     contiki-cc2538dk.a(tcpip.o)
                                                  contiki-cc2538dk.a(uip6.o)
timer_expired                                     contiki-cc2538dk.a(timer.o)
                                                  contiki-cc2538dk.a(sicslowpan.o)
                                                  contiki-cc2538dk.a(etimer.o)
                                                  contiki-cc2538dk.a(button-sensor.o)
timer_remaining                                   contiki-cc2538dk.a(timer.o)
timer_reset                                       contiki-cc2538dk.a(timer.o)
                                                  contiki-cc2538dk.a(etimer.o)
timer_restart                                     contiki-cc2538dk.a(timer.o)
                                                  contiki-cc2538dk.a(etimer.o)
timer_set                                         contiki-cc2538dk.a(timer.o)
                                                  contiki-cc2538dk.a(sicslowpan.o)
                                                  contiki-cc2538dk.a(etimer.o)
                                                  contiki-cc2538dk.a(button-sensor.o)
uart0_isr                                         contiki-cc2538dk.a(uart.o)
                                                  obj_cc2538dk/startup-gcc.o
uart1_isr                                         contiki-cc2538dk.a(uart.o)
                                                  obj_cc2538dk/startup-gcc.o
uart_init                                         contiki-cc2538dk.a(uart.o)
                                                  contiki-cc2538dk.a(contiki-main.o)
uart_set_input                                    contiki-cc2538dk.a(uart.o)
                                                  contiki-cc2538dk.a(contiki-main.o)
uart_write_byte                                   contiki-cc2538dk.a(uart.o)
                                                  contiki-cc2538dk.a(dbg.o)
udma_channel_disable                              contiki-cc2538dk.a(udma.o)
udma_channel_enable                               contiki-cc2538dk.a(udma.o)
                                                  contiki-cc2538dk.a(cc2538-rf.o)
udma_channel_get_mode                             contiki-cc2538dk.a(udma.o)
                                                  contiki-cc2538dk.a(cc2538-rf.o)
udma_channel_mask_clr                             contiki-cc2538dk.a(udma.o)
udma_channel_mask_set                             contiki-cc2538dk.a(udma.o)
                                                  contiki-cc2538dk.a(cc2538-rf.o)
udma_channel_prio_set_default                     contiki-cc2538dk.a(udma.o)
udma_channel_prio_set_high                        contiki-cc2538dk.a(udma.o)
udma_channel_sw_request                           contiki-cc2538dk.a(udma.o)
                                                  contiki-cc2538dk.a(cc2538-rf.o)
udma_channel_use_alternate                        contiki-cc2538dk.a(udma.o)
udma_channel_use_burst                            contiki-cc2538dk.a(udma.o)
udma_channel_use_primary                          contiki-cc2538dk.a(udma.o)
udma_channel_use_single                           contiki-cc2538dk.a(udma.o)
udma_err_isr                                      contiki-cc2538dk.a(udma.o)
                                                  obj_cc2538dk/startup-gcc.o
udma_init                                         contiki-cc2538dk.a(udma.o)
                                                  contiki-cc2538dk.a(contiki-main.o)
udma_isr                                          contiki-cc2538dk.a(udma.o)
                                                  obj_cc2538dk/startup-gcc.o
udma_set_channel_assignment                       contiki-cc2538dk.a(udma.o)
udma_set_channel_control_word                     contiki-cc2538dk.a(udma.o)
                                                  contiki-cc2538dk.a(cc2538-rf.o)
udma_set_channel_dst                              contiki-cc2538dk.a(udma.o)
                                                  contiki-cc2538dk.a(cc2538-rf.o)
udma_set_channel_src                              contiki-cc2538dk.a(udma.o)
                                                  contiki-cc2538dk.a(cc2538-rf.o)
udp_attach                                        contiki-cc2538dk.a(tcpip.o)
udp_broadcast_new                                 contiki-cc2538dk.a(tcpip.o)
udp_new                                           contiki-cc2538dk.a(tcpip.o)
                                                  udp-server.co
udp_server_process                                udp-server.co
uip_acc32                                         contiki-cc2538dk.a(uip6.o)
uip_add32                                         contiki-cc2538dk.a(uip6.o)
uip_aligned_buf                                   contiki-cc2538dk.a(uip6.o)
                                                  contiki-cc2538dk.a(rpl-icmp6.o)
                                                  contiki-cc2538dk.a(rpl-ext-header.)
                                                  contiki-cc2538dk.a(tcpip.o)
                                                  contiki-cc2538dk.a(uip-nd6.o)
                                                  contiki-cc2538dk.a(uip-icmp6.o)
                                                  contiki-cc2538dk.a(sicslowpan.o)
                                                  udp-server.co
uip_appdata                                       contiki-cc2538dk.a(uip6.o)
                                                  udp-server.co
uip_chksum                                        contiki-cc2538dk.a(uip6.o)
uip_conn                                          contiki-cc2538dk.a(uip6.o)
                                                  contiki-cc2538dk.a(tcpip.o)
uip_connect                                       contiki-cc2538dk.a(uip6.o)
                                                  contiki-cc2538dk.a(tcpip.o)
uip_conns                                         contiki-cc2538dk.a(uip6.o)
                                                  contiki-cc2538dk.a(tcpip.o)
uip_debug_ipaddr_print                            contiki-cc2538dk.a(uip-debug.o)
                                                  contiki-cc2538dk.a(uip-ds6-route.o)
                                                  udp-server.co
uip_debug_lladdr_print                            contiki-cc2538dk.a(uip-debug.o)
uip_ds6_aaddr_add                                 contiki-cc2538dk.a(uip-ds6.o)
uip_ds6_aaddr_lookup                              contiki-cc2538dk.a(uip-ds6.o)
uip_ds6_aaddr_rm                                  contiki-cc2538dk.a(uip-ds6.o)
uip_ds6_addr_add                                  contiki-cc2538dk.a(uip-ds6.o)
                                                  contiki-cc2538dk.a(rpl-dag.o)
                                                  udp-server.co
uip_ds6_addr_lookup                               contiki-cc2538dk.a(uip-ds6.o)
                                                  contiki-cc2538dk.a(rpl-dag.o)
                                                  contiki-cc2538dk.a(tcpip.o)
                                                  contiki-cc2538dk.a(uip-nd6.o)
                                                  contiki-cc2538dk.a(uip6.o)
                                                  udp-server.co
uip_ds6_addr_rm                                   contiki-cc2538dk.a(uip-ds6.o)
                                                  contiki-cc2538dk.a(rpl-dag.o)
uip_ds6_addr_size                                 contiki-cc2538dk.a(uip-ds6.o)
uip_ds6_compute_reachable_time                    contiki-cc2538dk.a(uip-ds6.o)
uip_ds6_defrt_add                                 contiki-cc2538dk.a(uip-ds6-route.o)
                                                  contiki-cc2538dk.a(rpl-dag.o)
uip_ds6_defrt_choose                              contiki-cc2538dk.a(uip-ds6-route.o)
                                                  contiki-cc2538dk.a(tcpip.o)
uip_ds6_defrt_lookup                              contiki-cc2538dk.a(uip-ds6-route.o)
                                                  contiki-cc2538dk.a(uip-nd6.o)
                                                  contiki-cc2538dk.a(uip-ds6-nbr.o)
uip_ds6_defrt_periodic                            contiki-cc2538dk.a(uip-ds6-route.o)
                                                  contiki-cc2538dk.a(uip-ds6.o)
uip_ds6_defrt_rm                                  contiki-cc2538dk.a(uip-ds6-route.o)
                                                  contiki-cc2538dk.a(rpl-dag.o)
                                                  contiki-cc2538dk.a(uip-nd6.o)
                                                  contiki-cc2538dk.a(uip-ds6-nbr.o)
uip_ds6_get_global                                contiki-cc2538dk.a(uip-ds6.o)
uip_ds6_get_least_lifetime_neighbor               contiki-cc2538dk.a(uip-ds6-nbr.o)
uip_ds6_get_link_local                            contiki-cc2538dk.a(uip-ds6.o)
                                                  contiki-cc2538dk.a(rpl-timers.o)
uip_ds6_if                                        contiki-cc2538dk.a(uip-ds6.o)
                                                  contiki-cc2538dk.a(rpl-icmp6.o)
                                                  contiki-cc2538dk.a(tcpip.o)
                                                  contiki-cc2538dk.a(uip-nd6.o)
                                                  contiki-cc2538dk.a(uip-icmp6.o)
                                                  contiki-cc2538dk.a(uip-ds6-nbr.o)
                                                  contiki-cc2538dk.a(uip6.o)
                                                  udp-server.co
uip_ds6_init                                      contiki-cc2538dk.a(uip-ds6.o)
                                                  contiki-cc2538dk.a(uip6.o)
uip_ds6_is_addr_onlink                            contiki-cc2538dk.a(uip-ds6.o)
                                                  contiki-cc2538dk.a(tcpip.o)
                                                  contiki-cc2538dk.a(uip6.o)
uip_ds6_link_neighbor_callback                    contiki-cc2538dk.a(uip-ds6-nbr.o)
                                                  contiki-cc2538dk.a(sicslowpan.o)
uip_ds6_list_loop                                 contiki-cc2538dk.a(uip-ds6.o)
uip_ds6_maddr_add                                 contiki-cc2538dk.a(uip-ds6.o)
                                                  contiki-cc2538dk.a(rpl.o)
uip_ds6_maddr_lookup                              contiki-cc2538dk.a(uip-ds6.o)
                                                  contiki-cc2538dk.a(uip6.o)
uip_ds6_maddr_rm                                  contiki-cc2538dk.a(uip-ds6.o)
uip_ds6_nbr_add                                   contiki-cc2538dk.a(uip-ds6-nbr.o)
                                                  contiki-cc2538dk.a(rpl-icmp6.o)
                                                  contiki-cc2538dk.a(tcpip.o)
                                                  contiki-cc2538dk.a(uip-nd6.o)
uip_ds6_nbr_get_ipaddr                            contiki-cc2538dk.a(uip-ds6-nbr.o)
uip_ds6_nbr_get_ll                                contiki-cc2538dk.a(uip-ds6-nbr.o)
                                                  contiki-cc2538dk.a(rpl-dag.o)
                                                  contiki-cc2538dk.a(tcpip.o)
                                                  contiki-cc2538dk.a(uip-nd6.o)
uip_ds6_nbr_ipaddr_from_lladdr                    contiki-cc2538dk.a(uip-ds6-nbr.o)
                                                  contiki-cc2538dk.a(rpl-dag.o)
                                                  contiki-cc2538dk.a(uip-ds6-route.o)
uip_ds6_nbr_ll_lookup                             contiki-cc2538dk.a(uip-ds6-nbr.o)
uip_ds6_nbr_lladdr_from_ipaddr                    contiki-cc2538dk.a(uip-ds6-nbr.o)
                                                  contiki-cc2538dk.a(rpl-dag.o)
                                                  contiki-cc2538dk.a(uip-ds6-route.o)
uip_ds6_nbr_lookup                                contiki-cc2538dk.a(uip-ds6-nbr.o)
                                                  contiki-cc2538dk.a(rpl-icmp6.o)
                                                  contiki-cc2538dk.a(rpl-dag.o)
                                                  contiki-cc2538dk.a(tcpip.o)
                                                  contiki-cc2538dk.a(uip-nd6.o)
                                                  contiki-cc2538dk.a(uip-ds6-route.o)
uip_ds6_nbr_num                                   contiki-cc2538dk.a(uip-ds6-nbr.o)
                                                  contiki-cc2538dk.a(rpl-dag.o)
uip_ds6_nbr_rm                                    contiki-cc2538dk.a(uip-ds6-nbr.o)
uip_ds6_neighbor_periodic                         contiki-cc2538dk.a(uip-ds6-nbr.o)
                                                  contiki-cc2538dk.a(uip-ds6.o)
uip_ds6_neighbors_init                            contiki-cc2538dk.a(uip-ds6-nbr.o)
                                                  contiki-cc2538dk.a(uip-ds6.o)
uip_ds6_netif_addr_list_offset                    contiki-cc2538dk.a(uip-ds6.o)
uip_ds6_notification_add                          contiki-cc2538dk.a(uip-ds6-route.o)
uip_ds6_notification_rm                           contiki-cc2538dk.a(uip-ds6-route.o)
uip_ds6_periodic                                  contiki-cc2538dk.a(uip-ds6.o)
                                                  contiki-cc2538dk.a(tcpip.o)
uip_ds6_prefix_add                                contiki-cc2538dk.a(uip-ds6.o)
uip_ds6_prefix_list                               contiki-cc2538dk.a(uip-ds6.o)
uip_ds6_prefix_lookup                             contiki-cc2538dk.a(uip-ds6.o)
uip_ds6_prefix_rm                                 contiki-cc2538dk.a(uip-ds6.o)
uip_ds6_route_add                                 contiki-cc2538dk.a(uip-ds6-route.o)
                                                  contiki-cc2538dk.a(rpl.o)
uip_ds6_route_head                                contiki-cc2538dk.a(uip-ds6-route.o)
                                                  contiki-cc2538dk.a(rpl.o)
uip_ds6_route_init                                contiki-cc2538dk.a(uip-ds6-route.o)
                                                  contiki-cc2538dk.a(uip-ds6.o)
uip_ds6_route_lookup                              contiki-cc2538dk.a(uip-ds6-route.o)
                                                  contiki-cc2538dk.a(rpl-icmp6.o)
                                                  contiki-cc2538dk.a(rpl-ext-header.)
                                                  contiki-cc2538dk.a(tcpip.o)
uip_ds6_route_next                                contiki-cc2538dk.a(uip-ds6-route.o)
                                                  contiki-cc2538dk.a(rpl.o)
uip_ds6_route_nexthop                             contiki-cc2538dk.a(uip-ds6-route.o)
                                                  contiki-cc2538dk.a(rpl-icmp6.o)
                                                  contiki-cc2538dk.a(rpl.o)
                                                  contiki-cc2538dk.a(tcpip.o)
uip_ds6_route_num_routes                          contiki-cc2538dk.a(uip-ds6-route.o)
uip_ds6_route_rm                                  contiki-cc2538dk.a(uip-ds6-route.o)
                                                  contiki-cc2538dk.a(rpl-ext-header.)
                                                  contiki-cc2538dk.a(rpl.o)
                                                  contiki-cc2538dk.a(tcpip.o)
uip_ds6_route_rm_by_nexthop                       contiki-cc2538dk.a(uip-ds6-route.o)
uip_ds6_select_src                                contiki-cc2538dk.a(uip-ds6.o)
                                                  contiki-cc2538dk.a(uip-nd6.o)
                                                  contiki-cc2538dk.a(uip-icmp6.o)
                                                  contiki-cc2538dk.a(uip6.o)
uip_ds6_set_addr_iid                              contiki-cc2538dk.a(uip-ds6.o)
                                                  contiki-cc2538dk.a(rpl-dag.o)
                                                  contiki-cc2538dk.a(rpl.o)
                                                  contiki-cc2538dk.a(sicslowpan.o)
uip_ds6_timer_periodic                            contiki-cc2538dk.a(uip-ds6.o)
                                                  contiki-cc2538dk.a(tcpip.o)
uip_ds6_timer_ra                                  contiki-cc2538dk.a(uip-ds6.o)
uip_ext_bitmap                                    contiki-cc2538dk.a(uip6.o)
uip_ext_len                                       contiki-cc2538dk.a(uip6.o)
                                                  contiki-cc2538dk.a(rpl-icmp6.o)
                                                  contiki-cc2538dk.a(rpl-ext-header.)
                                                  contiki-cc2538dk.a(tcpip.o)
                                                  contiki-cc2538dk.a(uip-nd6.o)
                                                  contiki-cc2538dk.a(uip-icmp6.o)
uip_ext_opt_offset                                contiki-cc2538dk.a(uip6.o)
uip_flags                                         contiki-cc2538dk.a(uip6.o)
                                                  contiki-cc2538dk.a(tcpip.o)
                                                  udp-server.co
uip_htonl                                         contiki-cc2538dk.a(uip6.o)
                                                  contiki-cc2538dk.a(uip-icmp6.o)
uip_htons                                         contiki-cc2538dk.a(uip6.o)
uip_icmp6_conns                                   contiki-cc2538dk.a(uip6.o)
                                                  contiki-cc2538dk.a(tcpip.o)
uip_icmp6_echo_reply_callback_add                 contiki-cc2538dk.a(uip-icmp6.o)
uip_icmp6_echo_reply_callback_rm                  contiki-cc2538dk.a(uip-icmp6.o)
uip_icmp6_error_output                            contiki-cc2538dk.a(uip-icmp6.o)
                                                  contiki-cc2538dk.a(uip6.o)
uip_icmp6_init                                    contiki-cc2538dk.a(uip-icmp6.o)
                                                  contiki-cc2538dk.a(uip6.o)
uip_icmp6_input                                   contiki-cc2538dk.a(uip-icmp6.o)
                                                  contiki-cc2538dk.a(uip6.o)
uip_icmp6_register_input_handler                  contiki-cc2538dk.a(uip-icmp6.o)
                                                  contiki-cc2538dk.a(rpl-icmp6.o)
                                                  contiki-cc2538dk.a(uip-nd6.o)
uip_icmp6_send                                    contiki-cc2538dk.a(uip-icmp6.o)
                                                  contiki-cc2538dk.a(rpl-icmp6.o)
uip_icmp6chksum                                   contiki-cc2538dk.a(uip6.o)
                                                  contiki-cc2538dk.a(uip-nd6.o)
                                                  contiki-cc2538dk.a(uip-icmp6.o)
uip_init                                          contiki-cc2538dk.a(uip6.o)
                                                  contiki-cc2538dk.a(tcpip.o)
uip_ipchksum                                      contiki-cc2538dk.a(uip6.o)
uip_len                                           contiki-cc2538dk.a(uip6.o)
                                                  contiki-cc2538dk.a(rpl-icmp6.o)
                                                  contiki-cc2538dk.a(rpl-ext-header.)
                                                  contiki-cc2538dk.a(tcpip.o)
                                                  contiki-cc2538dk.a(uip-nd6.o)
                                                  contiki-cc2538dk.a(uip-icmp6.o)
                                                  contiki-cc2538dk.a(uip-ds6-nbr.o)
                                                  contiki-cc2538dk.a(sicslowpan.o)
                                                  udp-server.co
uip_listen                                        contiki-cc2538dk.a(uip6.o)
                                                  contiki-cc2538dk.a(tcpip.o)
uip_listenports                                   contiki-cc2538dk.a(uip6.o)
uip_lladdr                                        contiki-cc2538dk.a(uip6.o)
                                                  contiki-cc2538dk.a(rpl-dag.o)
                                                  contiki-cc2538dk.a(uip-nd6.o)
                                                  contiki-cc2538dk.a(uip-ds6.o)
                                                  contiki-cc2538dk.a(sicslowpan.o)
                                                  contiki-cc2538dk.a(contiki-main.o)
uip_nd6_init                                      contiki-cc2538dk.a(uip-nd6.o)
                                                  contiki-cc2538dk.a(uip6.o)
uip_nd6_ns_output                                 contiki-cc2538dk.a(uip-nd6.o)
                                                  contiki-cc2538dk.a(tcpip.o)
                                                  contiki-cc2538dk.a(uip-ds6-nbr.o)
uip_next_hdr                                      contiki-cc2538dk.a(uip6.o)
uip_process                                       contiki-cc2538dk.a(uip6.o)
                                                  contiki-cc2538dk.a(tcpip.o)
uip_sappdata                                      contiki-cc2538dk.a(uip6.o)
uip_send                                          contiki-cc2538dk.a(uip6.o)
uip_slen                                          contiki-cc2538dk.a(uip6.o)
uip_tcpchksum                                     contiki-cc2538dk.a(uip6.o)
uip_udp_conn                                      contiki-cc2538dk.a(uip6.o)
                                                  contiki-cc2538dk.a(tcpip.o)
uip_udp_conns                                     contiki-cc2538dk.a(uip6.o)
                                                  contiki-cc2538dk.a(tcpip.o)
uip_udp_new                                       contiki-cc2538dk.a(uip6.o)
                                                  contiki-cc2538dk.a(tcpip.o)
uip_udpchksum                                     contiki-cc2538dk.a(uip6.o)
uip_unlisten                                      contiki-cc2538dk.a(uip6.o)
                                                  contiki-cc2538dk.a(tcpip.o)
unc_ctxconf                                       contiki-cc2538dk.a(sicslowpan.o)
unc_llconf                                        contiki-cc2538dk.a(sicslowpan.o)
unc_mxconf                                        contiki-cc2538dk.a(sicslowpan.o)
usb_isr                                           obj_cc2538dk/startup-gcc.o
vdd3_sensor                                       contiki-cc2538dk.a(vdd3-sensor.o)
                                                  contiki-cc2538dk.a(smartrf-sensors)
vectors                                           obj_cc2538dk/startup-gcc.o
watchdog_init                                     contiki-cc2538dk.a(watchdog.o)
                                                  contiki-cc2538dk.a(contiki-main.o)
watchdog_periodic                                 contiki-cc2538dk.a(watchdog.o)
                                                  contiki-cc2538dk.a(contikimac.o)
                                                  contiki-cc2538dk.a(sicslowpan.o)
                                                  contiki-cc2538dk.a(contiki-main.o)
watchdog_reboot                                   contiki-cc2538dk.a(watchdog.o)
watchdog_start                                    contiki-cc2538dk.a(watchdog.o)
                                                  contiki-cc2538dk.a(contiki-main.o)
