Archive member included because of file (symbol)

contiki-sky.a(contiki-sky-pla)
                              obj_sky/contiki-sky-main.o (init_platform)
contiki-sky.a(button-sensor.o)
                              contiki-sky.a(contiki-sky-pla) (button_sensor)
contiki-sky.a(ds2411.o)       obj_sky/contiki-sky-main.o (ds2411_init)
contiki-sky.a(xmem.o)         obj_sky/contiki-sky-main.o (xmem_init)
contiki-sky.a(node-id.o)      obj_sky/contiki-sky-main.o (node_id_restore)
contiki-sky.a(sensors.o)      contiki-sky.a(button-sensor.o) (sensors_changed)
contiki-sky.a(cc2420.o)       obj_sky/contiki-sky-main.o (cc2420_set_pan_addr)
contiki-sky.a(cc2420-arch.o)  contiki-sky.a(cc2420.o) (cc2420_arch_init)
contiki-sky.a(uart1.o)        obj_sky/contiki-sky-main.o (uart1_active)
contiki-sky.a(uart1-putchar.o)
                              obj_sky/contiki-sky-main.o (putchar)
contiki-sky.a(msp430.o)       contiki-sky.a(uart1.o) (msp430_add_lpm_req)
contiki-sky.a(clock.o)        obj_sky/contiki-sky-main.o (clock_init)
contiki-sky.a(leds.o)         obj_sky/contiki-sky-main.o (leds_init)
contiki-sky.a(leds-arch.o)    contiki-sky.a(leds.o) (leds_arch_init)
contiki-sky.a(watchdog.o)     obj_sky/contiki-sky-main.o (watchdog_start)
contiki-sky.a(rtimer-arch.o)  obj_sky/contiki-sky-main.o (rtimer_arch_now)
contiki-sky.a(autostart.o)    obj_sky/contiki-sky-main.o (autostart_start)
contiki-sky.a(ctimer.o)       obj_sky/contiki-sky-main.o (ctimer_init)
contiki-sky.a(energest.o)     obj_sky/contiki-sky-main.o (energest_init)
contiki-sky.a(etimer.o)       contiki-sky.a(clock.o) (etimer_request_poll)
contiki-sky.a(process.o)      contiki-sky.a(ctimer.o) (process_current)
contiki-sky.a(rtimer.o)       obj_sky/contiki-sky-main.o (rtimer_init)
contiki-sky.a(timer.o)        obj_sky/contiki-sky-main.o (timer_set)
contiki-sky.a(list.o)         contiki-sky.a(ctimer.o) (list_init)
contiki-sky.a(random.o)       obj_sky/contiki-sky-main.o (random_init)
contiki-sky.a(sicslowpan.o)   obj_sky/contiki-sky-main.o (sicslowpan_driver)
contiki-sky.a(uip6.o)         contiki-sky.a(sicslowpan.o) (uip_aligned_buf)
contiki-sky.a(uip-ds6.o)      contiki-sky.a(uip6.o) (uip_ds6_is_addr_onlink)
contiki-sky.a(uip-ds6-nbr.o)  contiki-sky.a(uip-ds6.o) (uip_ds6_neighbors_init)
contiki-sky.a(uip-ds6-route.o)
                              contiki-sky.a(uip-ds6.o) (uip_ds6_route_init)
contiki-sky.a(uip-icmp6.o)    contiki-sky.a(uip6.o) (uip_icmp6_input)
contiki-sky.a(uip-nd6.o)      contiki-sky.a(uip6.o) (uip_nd6_init)
contiki-sky.a(simple-udp.o)   broadcast-example.co (simple_udp_sendto)
contiki-sky.a(tcpip.o)        contiki-sky.a(sicslowpan.o) (tcpip_set_outputfunc)
contiki-sky.a(uip-debug.o)    contiki-sky.a(uip-ds6-route.o) (uip_debug_ipaddr_print)
contiki-sky.a(uip-udp-packet.)
                              contiki-sky.a(simple-udp.o) (uip_udp_packet_sendto)
contiki-sky.a(rpl.o)          contiki-sky.a(uip-ds6-nbr.o) (rpl_link_neighbor_callback)
contiki-sky.a(rpl-dag.o)      contiki-sky.a(rpl.o) (default_instance)
contiki-sky.a(rpl-ext-header.)
                              contiki-sky.a(uip6.o) (rpl_verify_header)
contiki-sky.a(rpl-icmp6.o)    contiki-sky.a(rpl.o) (dao_output_target)
contiki-sky.a(rpl-mrhof.o)    contiki-sky.a(rpl.o) (rpl_mrhof)
contiki-sky.a(rpl-timers.o)   contiki-sky.a(rpl.o) (rpl_reset_periodic_timer)
contiki-sky.a(csma.o)         obj_sky/contiki-sky-main.o (csma_driver)
contiki-sky.a(framer-802154.o)
                              contiki-sky.a(sicslowpan.o) (framer_802154)
contiki-sky.a(framer.o)       contiki-sky.a(framer-802154.o) (framer_canonical_create_and_secure)
contiki-sky.a(mac.o)          contiki-sky.a(csma.o) (mac_call_sent_callback)
contiki-sky.a(linkaddr.o)     obj_sky/contiki-sky-main.o (linkaddr_copy)
contiki-sky.a(nbr-table.o)    contiki-sky.a(uip-ds6-nbr.o) (nbr_table_register)
contiki-sky.a(packetbuf.o)    contiki-sky.a(framer.o) (packetbuf_compact)
contiki-sky.a(queuebuf.o)     obj_sky/contiki-sky-main.o (queuebuf_init)
contiki-sky.a(contikimac.o)   obj_sky/contiki-sky-main.o (contikimac_driver)
contiki-sky.a(nullsec.o)      obj_sky/contiki-sky-main.o (nullsec_driver)
contiki-sky.a(spi.o)          contiki-sky.a(xmem.o) (spi_init)
contiki-sky.a(compower.o)     contiki-sky.a(contikimac.o) (compower_idle_activity)
contiki-sky.a(stimer.o)       contiki-sky.a(uip-ds6.o) (stimer_set)
contiki-sky.a(memb.o)         contiki-sky.a(uip-ds6-route.o) (memb_init)
contiki-sky.a(frame802154.o)  contiki-sky.a(framer-802154.o) (frame802154_hdrlen)
contiki-sky.a(mac-sequence.o)
                              contiki-sky.a(contikimac.o) (mac_sequence_is_duplicate)
/usr/local/msp430/bin/../lib/gcc/msp430/4.7.0/mmpy-16/libgcc.a(_mulsi3.o)
                              contiki-sky.a(rpl-timers.o) (__mulsi3)
/usr/local/msp430/bin/../lib/gcc/msp430/4.7.0/mmpy-16/libgcc.a(_udivmod16.o)
                              contiki-sky.a(rpl-dag.o) (__udivhi3)
/usr/local/msp430/bin/../lib/gcc/msp430/4.7.0/mmpy-16/libgcc.a(_divmod16.o)
                              contiki-sky.a(sicslowpan.o) (__divhi3)
/usr/local/msp430/bin/../lib/gcc/msp430/4.7.0/mmpy-16/libgcc.a(_udivmod32.o)
                              obj_sky/contiki-sky-main.o (__udivsi3)
/usr/local/msp430/bin/../lib/gcc/msp430/4.7.0/../../../../msp430/lib/mmpy-16/libc.a(printf.o)
                              broadcast-example.co (printf)
/usr/local/msp430/bin/../lib/gcc/msp430/4.7.0/../../../../msp430/lib/mmpy-16/libc.a(vuprintf.o)
                              /usr/local/msp430/bin/../lib/gcc/msp430/4.7.0/../../../../msp430/lib/mmpy-16/libc.a(printf.o) (vuprintf)
/usr/local/msp430/bin/../lib/gcc/msp430/4.7.0/../../../../msp430/lib/mmpy-16/libc.a(puts.o)
                              broadcast-example.co (puts)
/usr/local/msp430/bin/../lib/gcc/msp430/4.7.0/../../../../msp430/lib/mmpy-16/libc.a(rand.o)
                              contiki-sky.a(random.o) (rand)
/usr/local/msp430/bin/../lib/gcc/msp430/4.7.0/../../../../msp430/lib/mmpy-16/libc.a(strncmp.o)
                              contiki-sky.a(sensors.o) (strncmp)
/usr/local/msp430/bin/../lib/gcc/msp430/4.7.0/../../../../msp430/lib/mmpy-16/libc.a(memcmp.o)
                              contiki-sky.a(sicslowpan.o) (memcmp)
/usr/local/msp430/bin/../lib/gcc/msp430/4.7.0/../../../../msp430/lib/mmpy-16/libc.a(memcpy.o)
                              obj_sky/contiki-sky-main.o (memcpy)
/usr/local/msp430/bin/../lib/gcc/msp430/4.7.0/../../../../msp430/lib/mmpy-16/libc.a(memmove.o)
                              contiki-sky.a(sicslowpan.o) (memmove)
/usr/local/msp430/bin/../lib/gcc/msp430/4.7.0/../../../../msp430/lib/mmpy-16/libc.a(memset.o)
                              obj_sky/contiki-sky-main.o (memset)
/usr/local/msp430/bin/../lib/gcc/msp430/4.7.0/mmpy-16/libgcc.a(_udivmod64.o)
                              /usr/local/msp430/bin/../lib/gcc/msp430/4.7.0/../../../../msp430/lib/mmpy-16/libc.a(vuprintf.o) (__udivdi3)
/usr/local/msp430/bin/../lib/gcc/msp430/4.7.0/mmpy-16/libcrt0.a(_reset_vector__.o)
                              (_reset_vector__)
/usr/local/msp430/bin/../lib/gcc/msp430/4.7.0/mmpy-16/libcrt0.a(__watchdog_support.o)
                              /usr/local/msp430/bin/../lib/gcc/msp430/4.7.0/mmpy-16/libcrt0.a(_reset_vector__.o) (__watchdog_support)
/usr/local/msp430/bin/../lib/gcc/msp430/4.7.0/mmpy-16/libcrt0.a(__init_stack.o)
                              /usr/local/msp430/bin/../lib/gcc/msp430/4.7.0/mmpy-16/libcrt0.a(_reset_vector__.o) (__init_stack)
/usr/local/msp430/bin/../lib/gcc/msp430/4.7.0/mmpy-16/libcrt0.a(__low_level_init.o)
                              /usr/local/msp430/bin/../lib/gcc/msp430/4.7.0/mmpy-16/libcrt0.a(_reset_vector__.o) (__low_level_init)
/usr/local/msp430/bin/../lib/gcc/msp430/4.7.0/mmpy-16/libcrt0.a(_copy_data.o)
                              /usr/local/msp430/bin/../lib/gcc/msp430/4.7.0/mmpy-16/libcrt0.a(_reset_vector__.o) (__do_copy_data)
/usr/local/msp430/bin/../lib/gcc/msp430/4.7.0/mmpy-16/libcrt0.a(_clear_bss.o)
                              /usr/local/msp430/bin/../lib/gcc/msp430/4.7.0/mmpy-16/libcrt0.a(_reset_vector__.o) (__do_clear_bss)
/usr/local/msp430/bin/../lib/gcc/msp430/4.7.0/mmpy-16/libcrt0.a(__stop_progExec__.o)
                              /usr/local/msp430/bin/../lib/gcc/msp430/4.7.0/mmpy-16/libcrt0.a(_reset_vector__.o) (__stop_progExec__)
/usr/local/msp430/bin/../lib/gcc/msp430/4.7.0/mmpy-16/libcrt0.a(_endless_loop__.o)
                              /usr/local/msp430/bin/../lib/gcc/msp430/4.7.0/mmpy-16/libcrt0.a(_reset_vector__.o) (_endless_loop__)
/usr/local/msp430/bin/../lib/gcc/msp430/4.7.0/mmpy-16/libcrt0.a(_unexpected_.o)
                              /usr/local/msp430/bin/../lib/gcc/msp430/4.7.0/mmpy-16/crt0ivtbl16.o (_unexpected_)

Allocating common symbols
Common symbol       size              file

compower_idle_activity
                    0x8               contiki-sky.a(compower.o)
energest_total_time
                    0x30              contiki-sky.a(energest.o)
uip_ds6_timer_ra    0x8               contiki-sky.a(uip-ds6.o)
cc2420_last_rssi    0x1               contiki-sky.a(cc2420.o)
uip_ds6_if          0xec              contiki-sky.a(uip-ds6.o)
uip_ds6_netif_addr_list_offset
                    0x1               contiki-sky.a(uip-ds6.o)
uip_len             0x2               contiki-sky.a(uip6.o)
energest_total_count
                    0x2               contiki-sky.a(energest.o)
cc2420_sfd_start_time
                    0x2               contiki-sky.a(cc2420.o)
cc2420_time_of_departure
                    0x2               contiki-sky.a(cc2420.o)
cc2420_time_of_arrival
                    0x2               contiki-sky.a(cc2420.o)
uip_ds6_addr_size   0x1               contiki-sky.a(uip-ds6.o)
uip_sappdata        0x2               contiki-sky.a(uip6.o)
energest_current_mode
                    0xc               contiki-sky.a(energest.o)
packetbuf_addrs     0x10              contiki-sky.a(packetbuf.o)
uip_acc32           0x4               contiki-sky.a(uip6.o)
uip_ds6_prefix_list
                    0x5a              contiki-sky.a(uip-ds6.o)
process_maxevents   0x1               contiki-sky.a(process.o)
frag_sender         0x8               contiki-sky.a(sicslowpan.o)
uip_lladdr          0x8               contiki-sky.a(uip6.o)
uip_aligned_buf     0xf0              contiki-sky.a(uip6.o)
uip_flags           0x1               contiki-sky.a(uip6.o)
uip_ds6_timer_periodic
                    0xc               contiki-sky.a(uip-ds6.o)
uip_next_hdr        0x2               contiki-sky.a(uip6.o)
cc2420_last_correlation
                    0x1               contiki-sky.a(cc2420.o)
linkaddr_node_addr  0x8               contiki-sky.a(linkaddr.o)
default_instance    0x2               contiki-sky.a(rpl-dag.o)
cc2420_authority_level_of_sender
                    0x2               contiki-sky.a(cc2420.o)
uip_udp_conn        0x2               contiki-sky.a(uip6.o)
packetbuf_attrs     0x1e              contiki-sky.a(packetbuf.o)
msp430_dco_required
                    0x2               contiki-sky.a(msp430.o)
cc2420_sfd_counter  0x1               contiki-sky.a(cc2420.o)
instance_table      0xdc              contiki-sky.a(rpl-dag.o)
uip_appdata         0x2               contiki-sky.a(uip6.o)
uip_conn            0x2               contiki-sky.a(uip6.o)
tcpip_event         0x1               contiki-sky.a(tcpip.o)
uip_conns           0xb0              contiki-sky.a(uip6.o)
uip_listenports     0x10              contiki-sky.a(uip6.o)
energest_current_time
                    0x18              contiki-sky.a(energest.o)
sensors_flags       0x2               contiki-sky.a(contiki-sky-pla)
cc2420_sfd_end_time
                    0x2               contiki-sky.a(cc2420.o)
sensors_event       0x1               contiki-sky.a(sensors.o)
ds2411_id           0x8               contiki-sky.a(ds2411.o)
uip_slen            0x2               contiki-sky.a(uip6.o)
uip_udp_conns       0x138             contiki-sky.a(uip6.o)

Discarded input sections

 .data          0x00000000        0x0 /usr/local/msp430/bin/../lib/gcc/msp430/4.7.0/mmpy-16/crt0ivtbl16.o
 .bss           0x00000000        0x0 /usr/local/msp430/bin/../lib/gcc/msp430/4.7.0/mmpy-16/crt0ivtbl16.o
 .text.crt0     0x00000000        0x0 /usr/local/msp430/bin/../lib/gcc/msp430/4.7.0/mmpy-16/crt0ivtbl16.o
 .text          0x00000000        0x0 broadcast-example.co
 .text          0x00000000        0x0 obj_sky/contiki-sky-main.o
 .data          0x00000000        0x0 obj_sky/contiki-sky-main.o
 .text.uip_log  0x00000000        0x6 obj_sky/contiki-sky-main.o
 .text          0x00000000        0x0 contiki-sky.a(contiki-sky-pla)
 .bss           0x00000000        0x0 contiki-sky.a(contiki-sky-pla)
 .text          0x00000000        0x0 contiki-sky.a(button-sensor.o)
 .data          0x00000000        0x0 contiki-sky.a(button-sensor.o)
 .text          0x00000000        0x0 contiki-sky.a(ds2411.o)
 .data          0x00000000        0x0 contiki-sky.a(ds2411.o)
 .bss           0x00000000        0x0 contiki-sky.a(ds2411.o)
 .text          0x00000000        0x0 contiki-sky.a(xmem.o)
 .data          0x00000000        0x0 contiki-sky.a(xmem.o)
 .bss           0x00000000        0x0 contiki-sky.a(xmem.o)
 .text.write_enable
                0x00000000       0x28 contiki-sky.a(xmem.o)
 .text.xmem_pwrite
                0x00000000      0x13a contiki-sky.a(xmem.o)
 .text.xmem_erase
                0x00000000       0xba contiki-sky.a(xmem.o)
 .text          0x00000000        0x0 contiki-sky.a(node-id.o)
 .data          0x00000000        0x0 contiki-sky.a(node-id.o)
 .text.node_id_burn
                0x00000000       0x36 contiki-sky.a(node-id.o)
 .text          0x00000000        0x0 contiki-sky.a(sensors.o)
 .text.sensors_first
                0x00000000        0x6 contiki-sky.a(sensors.o)
 .text.sensors_next
                0x00000000       0x24 contiki-sky.a(sensors.o)
 .text.sensors_find
                0x00000000       0x50 contiki-sky.a(sensors.o)
 .text          0x00000000        0x0 contiki-sky.a(cc2420.o)
 .text.cc2420_get_channel
                0x00000000        0x6 contiki-sky.a(cc2420.o)
 .text          0x00000000        0x0 contiki-sky.a(cc2420-arch.o)
 .data          0x00000000        0x0 contiki-sky.a(cc2420-arch.o)
 .bss           0x00000000        0x0 contiki-sky.a(cc2420-arch.o)
 .text          0x00000000        0x0 contiki-sky.a(uart1.o)
 .data          0x00000000        0x0 contiki-sky.a(uart1.o)
 .text.handle_rxdma_timer
                0x00000000       0x3a contiki-sky.a(uart1.o)
 .text.uart1_set_input
                0x00000000       0x20 contiki-sky.a(uart1.o)
 .text          0x00000000        0x0 contiki-sky.a(uart1-putchar.o)
 .data          0x00000000        0x0 contiki-sky.a(uart1-putchar.o)
 .bss           0x00000000        0x0 contiki-sky.a(uart1-putchar.o)
 .text          0x00000000        0x0 contiki-sky.a(msp430.o)
 .bss           0x00000000        0x0 contiki-sky.a(msp430.o)
 .text.msp430_remove_lpm_req
                0x00000000        0xc contiki-sky.a(msp430.o)
 .text.sbrk     0x00000000       0x1e contiki-sky.a(msp430.o)
 .text          0x00000000        0x0 contiki-sky.a(clock.o)
 .data          0x00000000        0x0 contiki-sky.a(clock.o)
 .text.clock_set
                0x00000000       0x16 contiki-sky.a(clock.o)
 .text.clock_fine_max
                0x00000000        0x6 contiki-sky.a(clock.o)
 .text.clock_fine
                0x00000000        0xc contiki-sky.a(clock.o)
 .text.clock_wait
                0x00000000       0x30 contiki-sky.a(clock.o)
 .text.clock_set_seconds
                0x00000000       0x1c contiki-sky.a(clock.o)
 .text.clock_counter
                0x00000000        0xe contiki-sky.a(clock.o)
 .text          0x00000000        0x0 contiki-sky.a(leds.o)
 .data          0x00000000        0x0 contiki-sky.a(leds.o)
 .text.leds_get
                0x00000000        0x6 contiki-sky.a(leds.o)
 .text.leds_set
                0x00000000        0x6 contiki-sky.a(leds.o)
 .text.leds_toggle
                0x00000000        0xa contiki-sky.a(leds.o)
 .text.leds_blink
                0x00000000       0x20 contiki-sky.a(leds.o)
 .text          0x00000000        0x0 contiki-sky.a(leds-arch.o)
 .data          0x00000000        0x0 contiki-sky.a(leds-arch.o)
 .bss           0x00000000        0x0 contiki-sky.a(leds-arch.o)
 .text.leds_arch_get
                0x00000000       0x3e contiki-sky.a(leds-arch.o)
 .text          0x00000000        0x0 contiki-sky.a(watchdog.o)
 .data          0x00000000        0x0 contiki-sky.a(watchdog.o)
 .text.watchdog_reboot
                0x00000000        0x6 contiki-sky.a(watchdog.o)
 .text          0x00000000        0x0 contiki-sky.a(rtimer-arch.o)
 .data          0x00000000        0x0 contiki-sky.a(rtimer-arch.o)
 .bss           0x00000000        0x0 contiki-sky.a(rtimer-arch.o)
 .text          0x00000000        0x0 contiki-sky.a(autostart.o)
 .data          0x00000000        0x0 contiki-sky.a(autostart.o)
 .bss           0x00000000        0x0 contiki-sky.a(autostart.o)
 .text.autostart_exit
                0x00000000       0x14 contiki-sky.a(autostart.o)
 .text          0x00000000        0x0 contiki-sky.a(ctimer.o)
 .text.ctimer_restart
                0x00000000       0x30 contiki-sky.a(ctimer.o)
 .text.ctimer_expired
                0x00000000       0x30 contiki-sky.a(ctimer.o)
 .text          0x00000000        0x0 contiki-sky.a(energest.o)
 .data          0x00000000        0x0 contiki-sky.a(energest.o)
 .bss           0x00000000        0x0 contiki-sky.a(energest.o)
 .text.energest_leveldevice_leveltime
                0x00000000        0x6 contiki-sky.a(energest.o)
 .text          0x00000000        0x0 contiki-sky.a(etimer.o)
 .text.etimer_adjust
                0x00000000       0x1a contiki-sky.a(etimer.o)
 .text.etimer_start_time
                0x00000000        0x8 contiki-sky.a(etimer.o)
 .text          0x00000000        0x0 contiki-sky.a(process.o)
 .data          0x00000000        0x0 contiki-sky.a(process.o)
 .text.process_exit
                0x00000000        0xa contiki-sky.a(process.o)
 .text.process_is_running
                0x00000000        0xe contiki-sky.a(process.o)
 .text          0x00000000        0x0 contiki-sky.a(rtimer.o)
 .data          0x00000000        0x0 contiki-sky.a(rtimer.o)
 .text          0x00000000        0x0 contiki-sky.a(timer.o)
 .data          0x00000000        0x0 contiki-sky.a(timer.o)
 .bss           0x00000000        0x0 contiki-sky.a(timer.o)
 .text.timer_remaining
                0x00000000       0x28 contiki-sky.a(timer.o)
 .text          0x00000000        0x0 contiki-sky.a(list.o)
 .data          0x00000000        0x0 contiki-sky.a(list.o)
 .bss           0x00000000        0x0 contiki-sky.a(list.o)
 .text.list_copy
                0x00000000        0x6 contiki-sky.a(list.o)
 .text.list_chop
                0x00000000       0x1a contiki-sky.a(list.o)
 .text.list_pop
                0x00000000        0xe contiki-sky.a(list.o)
 .text.list_insert
                0x00000000       0x16 contiki-sky.a(list.o)
 .text          0x00000000        0x0 contiki-sky.a(random.o)
 .data          0x00000000        0x0 contiki-sky.a(random.o)
 .bss           0x00000000        0x0 contiki-sky.a(random.o)
 .text          0x00000000        0x0 contiki-sky.a(sicslowpan.o)
 .data          0x00000000        0x0 contiki-sky.a(sicslowpan.o)
 .text.rime_sniffer_add
                0x00000000        0x6 contiki-sky.a(sicslowpan.o)
 .text.rime_sniffer_remove
                0x00000000        0x6 contiki-sky.a(sicslowpan.o)
 .text.sicslowpan_get_last_rssi
                0x00000000        0x6 contiki-sky.a(sicslowpan.o)
 .text          0x00000000        0x0 contiki-sky.a(uip6.o)
 .data          0x00000000        0x0 contiki-sky.a(uip6.o)
 .text.uip_chksum
                0x00000000       0x18 contiki-sky.a(uip6.o)
 .text.uip_connect
                0x00000000      0x12e contiki-sky.a(uip6.o)
 .text.uip_listen
                0x00000000       0x2c contiki-sky.a(uip6.o)
 .text.uip_htons
                0x00000000        0xc contiki-sky.a(uip6.o)
 .text.uip_send
                0x00000000       0x48 contiki-sky.a(uip6.o)
 .text          0x00000000        0x0 contiki-sky.a(uip-ds6.o)
 .data          0x00000000        0x0 contiki-sky.a(uip-ds6.o)
 .text.uip_ds6_prefix_rm
                0x00000000        0xa contiki-sky.a(uip-ds6.o)
 .text.uip_ds6_prefix_lookup
                0x00000000       0x28 contiki-sky.a(uip-ds6.o)
 .text.uip_ds6_get_global
                0x00000000       0x3e contiki-sky.a(uip-ds6.o)
 .text.uip_ds6_aaddr_add
                0x00000000       0x4a contiki-sky.a(uip-ds6.o)
 .text.uip_ds6_aaddr_rm
                0x00000000        0xa contiki-sky.a(uip-ds6.o)
 .text.uip_ds6_aaddr_lookup
                0x00000000       0x28 contiki-sky.a(uip-ds6.o)
 .text          0x00000000        0x0 contiki-sky.a(uip-ds6-nbr.o)
 .text.uip_ds6_nbr_get_ipaddr
                0x00000000        0x2 contiki-sky.a(uip-ds6-nbr.o)
 .text.uip_ds6_nbr_num
                0x00000000       0x24 contiki-sky.a(uip-ds6-nbr.o)
 .text.uip_ds6_get_least_lifetime_neighbor
                0x00000000       0x5e contiki-sky.a(uip-ds6-nbr.o)
 .text          0x00000000        0x0 contiki-sky.a(uip-ds6-route.o)
 .text.uip_ds6_notification_add
                0x00000000       0x18 contiki-sky.a(uip-ds6-route.o)
 .text.uip_ds6_notification_rm
                0x00000000        0xc contiki-sky.a(uip-ds6-route.o)
 .text.uip_ds6_route_num_routes
                0x00000000        0x6 contiki-sky.a(uip-ds6-route.o)
 .text.uip_ds6_route_rm_by_nexthop
                0x00000000       0x14 contiki-sky.a(uip-ds6-route.o)
 .text          0x00000000        0x0 contiki-sky.a(uip-icmp6.o)
 .text.uip_icmp6_echo_reply_callback_add
                0x00000000       0x18 contiki-sky.a(uip-icmp6.o)
 .text.uip_icmp6_echo_reply_callback_rm
                0x00000000        0xc contiki-sky.a(uip-icmp6.o)
 .text          0x00000000        0x0 contiki-sky.a(uip-nd6.o)
 .data          0x00000000        0x0 contiki-sky.a(uip-nd6.o)
 .bss           0x00000000        0x0 contiki-sky.a(uip-nd6.o)
 .text.uip_nd6_ns_output
                0x00000000      0x17a contiki-sky.a(uip-nd6.o)
 .text          0x00000000        0x0 contiki-sky.a(simple-udp.o)
 .text.simple_udp_send
                0x00000000       0x2e contiki-sky.a(simple-udp.o)
 .text.simple_udp_sendto_port
                0x00000000       0x2a contiki-sky.a(simple-udp.o)
 .text          0x00000000        0x0 contiki-sky.a(tcpip.o)
 .text.tcp_unlisten
                0x00000000       0x32 contiki-sky.a(tcpip.o)
 .text.tcp_listen
                0x00000000       0x3a contiki-sky.a(tcpip.o)
 .text.tcp_attach
                0x00000000        0xc contiki-sky.a(tcpip.o)
 .text.udp_attach
                0x00000000        0xc contiki-sky.a(tcpip.o)
 .text.udp_broadcast_new
                0x00000000       0x46 contiki-sky.a(tcpip.o)
 .text.tcpip_poll_udp
                0x00000000        0xe contiki-sky.a(tcpip.o)
 .text.tcpip_poll_tcp
                0x00000000        0xe contiki-sky.a(tcpip.o)
 .text.tcp_connect
                0x00000000       0x26 contiki-sky.a(tcpip.o)
 .text          0x00000000        0x0 contiki-sky.a(uip-debug.o)
 .data          0x00000000        0x0 contiki-sky.a(uip-debug.o)
 .bss           0x00000000        0x0 contiki-sky.a(uip-debug.o)
 .text.uip_debug_lladdr_print
                0x00000000       0x40 contiki-sky.a(uip-debug.o)
 .text          0x00000000        0x0 contiki-sky.a(uip-udp-packet.)
 .data          0x00000000        0x0 contiki-sky.a(uip-udp-packet.)
 .bss           0x00000000        0x0 contiki-sky.a(uip-udp-packet.)
 .text          0x00000000        0x0 contiki-sky.a(rpl.o)
 .data          0x00000000        0x0 contiki-sky.a(rpl.o)
 .text.rpl_set_mode
                0x00000000       0x3c contiki-sky.a(rpl.o)
 .text          0x00000000        0x0 contiki-sky.a(rpl-dag.o)
 .rodata        0x00000000       0x6a contiki-sky.a(rpl-dag.o)
 .text.rpl_print_neighbor_list
                0x00000000      0x104 contiki-sky.a(rpl-dag.o)
 .text.rpl_get_parent_rank
                0x00000000       0x18 contiki-sky.a(rpl-dag.o)
 .text.rpl_get_parent_link_metric
                0x00000000       0x18 contiki-sky.a(rpl-dag.o)
 .text.rpl_set_default_instance
                0x00000000        0x6 contiki-sky.a(rpl-dag.o)
 .text.rpl_get_default_instance
                0x00000000        0x6 contiki-sky.a(rpl-dag.o)
 .text.rpl_free_dag
                0x00000000       0x34 contiki-sky.a(rpl-dag.o)
 .text.rpl_free_instance
                0x00000000       0x70 contiki-sky.a(rpl-dag.o)
 .text.rpl_set_root
                0x00000000      0x136 contiki-sky.a(rpl-dag.o)
 .text          0x00000000        0x0 contiki-sky.a(rpl-ext-header.)
 .data          0x00000000        0x0 contiki-sky.a(rpl-ext-header.)
 .bss           0x00000000        0x0 contiki-sky.a(rpl-ext-header.)
 .text.rpl_remove_header
                0x00000000       0x4c contiki-sky.a(rpl-ext-header.)
 .text          0x00000000        0x0 contiki-sky.a(rpl-icmp6.o)
 .bss           0x00000000        0x0 contiki-sky.a(rpl-icmp6.o)
 .text          0x00000000        0x0 contiki-sky.a(rpl-mrhof.o)
 .bss           0x00000000        0x0 contiki-sky.a(rpl-mrhof.o)
 .text          0x00000000        0x0 contiki-sky.a(rpl-timers.o)
 .data          0x00000000        0x0 contiki-sky.a(rpl-timers.o)
 .text.rpl_schedule_dao_immediately
                0x00000000        0xa contiki-sky.a(rpl-timers.o)
 .text.rpl_cancel_dao
                0x00000000       0x1a contiki-sky.a(rpl-timers.o)
 .text          0x00000000        0x0 contiki-sky.a(csma.o)
 .text          0x00000000        0x0 contiki-sky.a(framer-802154.o)
 .data          0x00000000        0x0 contiki-sky.a(framer-802154.o)
 .text          0x00000000        0x0 contiki-sky.a(framer.o)
 .data          0x00000000        0x0 contiki-sky.a(framer.o)
 .bss           0x00000000        0x0 contiki-sky.a(framer.o)
 .text          0x00000000        0x0 contiki-sky.a(mac.o)
 .data          0x00000000        0x0 contiki-sky.a(mac.o)
 .bss           0x00000000        0x0 contiki-sky.a(mac.o)
 .text          0x00000000        0x0 contiki-sky.a(linkaddr.o)
 .data          0x00000000        0x0 contiki-sky.a(linkaddr.o)
 .bss           0x00000000        0x0 contiki-sky.a(linkaddr.o)
 .text          0x00000000        0x0 contiki-sky.a(nbr-table.o)
 .text          0x00000000        0x0 contiki-sky.a(packetbuf.o)
 .data          0x00000000        0x0 contiki-sky.a(packetbuf.o)
 .text.packetbuf_clear_hdr
                0x00000000        0x8 contiki-sky.a(packetbuf.o)
 .text.packetbuf_copyto_hdr
                0x00000000       0x1c contiki-sky.a(packetbuf.o)
 .text.packetbuf_hdr_remove
                0x00000000        0x6 contiki-sky.a(packetbuf.o)
 .text          0x00000000        0x0 contiki-sky.a(queuebuf.o)
 .text.queuebuf_dataptr
                0x00000000       0x1c contiki-sky.a(queuebuf.o)
 .text.queuebuf_datalen
                0x00000000        0x8 contiki-sky.a(queuebuf.o)
 .text.queuebuf_addr
                0x00000000       0x12 contiki-sky.a(queuebuf.o)
 .text.queuebuf_debug_print
                0x00000000        0x2 contiki-sky.a(queuebuf.o)
 .text          0x00000000        0x0 contiki-sky.a(contikimac.o)
 .data          0x00000000        0x0 contiki-sky.a(contikimac.o)
 .text.contikimac_debug_print
                0x00000000        0x4 contiki-sky.a(contikimac.o)
 .text          0x00000000        0x0 contiki-sky.a(nullsec.o)
 .data          0x00000000        0x0 contiki-sky.a(nullsec.o)
 .bss           0x00000000        0x0 contiki-sky.a(nullsec.o)
 .text          0x00000000        0x0 contiki-sky.a(spi.o)
 .data          0x00000000        0x0 contiki-sky.a(spi.o)
 .bss           0x00000000        0x1 contiki-sky.a(spi.o)
 .text          0x00000000        0x0 contiki-sky.a(compower.o)
 .data          0x00000000        0x0 contiki-sky.a(compower.o)
 .text.compower_init
                0x00000000       0x12 contiki-sky.a(compower.o)
 .text.compower_accumulate_attrs
                0x00000000       0x20 contiki-sky.a(compower.o)
 .text          0x00000000        0x0 contiki-sky.a(stimer.o)
 .data          0x00000000        0x0 contiki-sky.a(stimer.o)
 .bss           0x00000000        0x0 contiki-sky.a(stimer.o)
 .text.stimer_reset
                0x00000000        0xe contiki-sky.a(stimer.o)
 .text.stimer_restart
                0x00000000       0x14 contiki-sky.a(stimer.o)
 .text.stimer_remaining
                0x00000000       0x28 contiki-sky.a(stimer.o)
 .text.stimer_elapsed
                0x00000000       0x12 contiki-sky.a(stimer.o)
 .text          0x00000000        0x0 contiki-sky.a(memb.o)
 .data          0x00000000        0x0 contiki-sky.a(memb.o)
 .bss           0x00000000        0x0 contiki-sky.a(memb.o)
 .text          0x00000000        0x0 contiki-sky.a(frame802154.o)
 .data          0x00000000        0x0 contiki-sky.a(frame802154.o)
 .bss           0x00000000        0x0 contiki-sky.a(frame802154.o)
 .text          0x00000000        0x0 contiki-sky.a(mac-sequence.o)
 .data          0x00000000        0x0 contiki-sky.a(mac-sequence.o)
 .text          0x00000000        0x0 /usr/local/msp430/bin/../lib/gcc/msp430/4.7.0/mmpy-16/libgcc.a(_mulsi3.o)
 .data          0x00000000        0x0 /usr/local/msp430/bin/../lib/gcc/msp430/4.7.0/mmpy-16/libgcc.a(_mulsi3.o)
 .bss           0x00000000        0x0 /usr/local/msp430/bin/../lib/gcc/msp430/4.7.0/mmpy-16/libgcc.a(_mulsi3.o)
 .text          0x00000000        0x0 /usr/local/msp430/bin/../lib/gcc/msp430/4.7.0/mmpy-16/libgcc.a(_udivmod16.o)
 .data          0x00000000        0x0 /usr/local/msp430/bin/../lib/gcc/msp430/4.7.0/mmpy-16/libgcc.a(_udivmod16.o)
 .bss           0x00000000        0x0 /usr/local/msp430/bin/../lib/gcc/msp430/4.7.0/mmpy-16/libgcc.a(_udivmod16.o)
 .text          0x00000000        0x0 /usr/local/msp430/bin/../lib/gcc/msp430/4.7.0/mmpy-16/libgcc.a(_divmod16.o)
 .data          0x00000000        0x0 /usr/local/msp430/bin/../lib/gcc/msp430/4.7.0/mmpy-16/libgcc.a(_divmod16.o)
 .bss           0x00000000        0x0 /usr/local/msp430/bin/../lib/gcc/msp430/4.7.0/mmpy-16/libgcc.a(_divmod16.o)
 .text          0x00000000        0x0 /usr/local/msp430/bin/../lib/gcc/msp430/4.7.0/mmpy-16/libgcc.a(_udivmod32.o)
 .data          0x00000000        0x0 /usr/local/msp430/bin/../lib/gcc/msp430/4.7.0/mmpy-16/libgcc.a(_udivmod32.o)
 .bss           0x00000000        0x0 /usr/local/msp430/bin/../lib/gcc/msp430/4.7.0/mmpy-16/libgcc.a(_udivmod32.o)
 .text          0x00000000        0x0 /usr/local/msp430/bin/../lib/gcc/msp430/4.7.0/../../../../msp430/lib/mmpy-16/libc.a(printf.o)
 .data          0x00000000        0x0 /usr/local/msp430/bin/../lib/gcc/msp430/4.7.0/../../../../msp430/lib/mmpy-16/libc.a(printf.o)
 .bss           0x00000000        0x0 /usr/local/msp430/bin/../lib/gcc/msp430/4.7.0/../../../../msp430/lib/mmpy-16/libc.a(printf.o)
 .text.vprintf  0x00000000        0xe /usr/local/msp430/bin/../lib/gcc/msp430/4.7.0/../../../../msp430/lib/mmpy-16/libc.a(printf.o)
 .text          0x00000000        0x0 /usr/local/msp430/bin/../lib/gcc/msp430/4.7.0/../../../../msp430/lib/mmpy-16/libc.a(vuprintf.o)
 .data          0x00000000        0x0 /usr/local/msp430/bin/../lib/gcc/msp430/4.7.0/../../../../msp430/lib/mmpy-16/libc.a(vuprintf.o)
 .bss           0x00000000        0x0 /usr/local/msp430/bin/../lib/gcc/msp430/4.7.0/../../../../msp430/lib/mmpy-16/libc.a(vuprintf.o)
 .text          0x00000000        0x0 /usr/local/msp430/bin/../lib/gcc/msp430/4.7.0/../../../../msp430/lib/mmpy-16/libc.a(puts.o)
 .data          0x00000000        0x0 /usr/local/msp430/bin/../lib/gcc/msp430/4.7.0/../../../../msp430/lib/mmpy-16/libc.a(puts.o)
 .bss           0x00000000        0x0 /usr/local/msp430/bin/../lib/gcc/msp430/4.7.0/../../../../msp430/lib/mmpy-16/libc.a(puts.o)
 .text          0x00000000        0x0 /usr/local/msp430/bin/../lib/gcc/msp430/4.7.0/../../../../msp430/lib/mmpy-16/libc.a(rand.o)
 .data          0x00000000        0x0 /usr/local/msp430/bin/../lib/gcc/msp430/4.7.0/../../../../msp430/lib/mmpy-16/libc.a(rand.o)
 .bss           0x00000000        0x0 /usr/local/msp430/bin/../lib/gcc/msp430/4.7.0/../../../../msp430/lib/mmpy-16/libc.a(rand.o)
 .text.rand_r   0x00000000       0x24 /usr/local/msp430/bin/../lib/gcc/msp430/4.7.0/../../../../msp430/lib/mmpy-16/libc.a(rand.o)
 .text          0x00000000        0x0 /usr/local/msp430/bin/../lib/gcc/msp430/4.7.0/../../../../msp430/lib/mmpy-16/libc.a(strncmp.o)
 .data          0x00000000        0x0 /usr/local/msp430/bin/../lib/gcc/msp430/4.7.0/../../../../msp430/lib/mmpy-16/libc.a(strncmp.o)
 .bss           0x00000000        0x0 /usr/local/msp430/bin/../lib/gcc/msp430/4.7.0/../../../../msp430/lib/mmpy-16/libc.a(strncmp.o)
 .text.strncmp  0x00000000       0x2a /usr/local/msp430/bin/../lib/gcc/msp430/4.7.0/../../../../msp430/lib/mmpy-16/libc.a(strncmp.o)
 .debug_frame   0x00000000       0x24 /usr/local/msp430/bin/../lib/gcc/msp430/4.7.0/../../../../msp430/lib/mmpy-16/libc.a(strncmp.o)
 .debug_info    0x00000000       0xc2 /usr/local/msp430/bin/../lib/gcc/msp430/4.7.0/../../../../msp430/lib/mmpy-16/libc.a(strncmp.o)
 .debug_abbrev  0x00000000       0x72 /usr/local/msp430/bin/../lib/gcc/msp430/4.7.0/../../../../msp430/lib/mmpy-16/libc.a(strncmp.o)
 .debug_loc     0x00000000       0x4a /usr/local/msp430/bin/../lib/gcc/msp430/4.7.0/../../../../msp430/lib/mmpy-16/libc.a(strncmp.o)
 .debug_aranges
                0x00000000       0x14 /usr/local/msp430/bin/../lib/gcc/msp430/4.7.0/../../../../msp430/lib/mmpy-16/libc.a(strncmp.o)
 .debug_ranges  0x00000000        0x8 /usr/local/msp430/bin/../lib/gcc/msp430/4.7.0/../../../../msp430/lib/mmpy-16/libc.a(strncmp.o)
 .debug_line    0x00000000       0x8f /usr/local/msp430/bin/../lib/gcc/msp430/4.7.0/../../../../msp430/lib/mmpy-16/libc.a(strncmp.o)
 .debug_str     0x00000000      0x100 /usr/local/msp430/bin/../lib/gcc/msp430/4.7.0/../../../../msp430/lib/mmpy-16/libc.a(strncmp.o)
 .comment       0x00000000       0x31 /usr/local/msp430/bin/../lib/gcc/msp430/4.7.0/../../../../msp430/lib/mmpy-16/libc.a(strncmp.o)
 .text          0x00000000        0x0 /usr/local/msp430/bin/../lib/gcc/msp430/4.7.0/../../../../msp430/lib/mmpy-16/libc.a(memcmp.o)
 .data          0x00000000        0x0 /usr/local/msp430/bin/../lib/gcc/msp430/4.7.0/../../../../msp430/lib/mmpy-16/libc.a(memcmp.o)
 .bss           0x00000000        0x0 /usr/local/msp430/bin/../lib/gcc/msp430/4.7.0/../../../../msp430/lib/mmpy-16/libc.a(memcmp.o)
 .text          0x00000000        0x0 /usr/local/msp430/bin/../lib/gcc/msp430/4.7.0/../../../../msp430/lib/mmpy-16/libc.a(memcpy.o)
 .data          0x00000000        0x0 /usr/local/msp430/bin/../lib/gcc/msp430/4.7.0/../../../../msp430/lib/mmpy-16/libc.a(memcpy.o)
 .bss           0x00000000        0x0 /usr/local/msp430/bin/../lib/gcc/msp430/4.7.0/../../../../msp430/lib/mmpy-16/libc.a(memcpy.o)
 .text          0x00000000        0x0 /usr/local/msp430/bin/../lib/gcc/msp430/4.7.0/../../../../msp430/lib/mmpy-16/libc.a(memmove.o)
 .data          0x00000000        0x0 /usr/local/msp430/bin/../lib/gcc/msp430/4.7.0/../../../../msp430/lib/mmpy-16/libc.a(memmove.o)
 .bss           0x00000000        0x0 /usr/local/msp430/bin/../lib/gcc/msp430/4.7.0/../../../../msp430/lib/mmpy-16/libc.a(memmove.o)
 .text          0x00000000        0x0 /usr/local/msp430/bin/../lib/gcc/msp430/4.7.0/../../../../msp430/lib/mmpy-16/libc.a(memset.o)
 .data          0x00000000        0x0 /usr/local/msp430/bin/../lib/gcc/msp430/4.7.0/../../../../msp430/lib/mmpy-16/libc.a(memset.o)
 .bss           0x00000000        0x0 /usr/local/msp430/bin/../lib/gcc/msp430/4.7.0/../../../../msp430/lib/mmpy-16/libc.a(memset.o)
 .text          0x00000000        0x0 /usr/local/msp430/bin/../lib/gcc/msp430/4.7.0/mmpy-16/libgcc.a(_udivmod64.o)
 .data          0x00000000        0x0 /usr/local/msp430/bin/../lib/gcc/msp430/4.7.0/mmpy-16/libgcc.a(_udivmod64.o)
 .bss           0x00000000        0x0 /usr/local/msp430/bin/../lib/gcc/msp430/4.7.0/mmpy-16/libgcc.a(_udivmod64.o)
 .text          0x00000000        0x0 /usr/local/msp430/bin/../lib/gcc/msp430/4.7.0/mmpy-16/libcrt0.a(_reset_vector__.o)
 .data          0x00000000        0x0 /usr/local/msp430/bin/../lib/gcc/msp430/4.7.0/mmpy-16/libcrt0.a(_reset_vector__.o)
 .bss           0x00000000        0x0 /usr/local/msp430/bin/../lib/gcc/msp430/4.7.0/mmpy-16/libcrt0.a(_reset_vector__.o)
 .text          0x00000000        0x0 /usr/local/msp430/bin/../lib/gcc/msp430/4.7.0/mmpy-16/libcrt0.a(__watchdog_support.o)
 .data          0x00000000        0x0 /usr/local/msp430/bin/../lib/gcc/msp430/4.7.0/mmpy-16/libcrt0.a(__watchdog_support.o)
 .bss           0x00000000        0x0 /usr/local/msp430/bin/../lib/gcc/msp430/4.7.0/mmpy-16/libcrt0.a(__watchdog_support.o)
 .text          0x00000000        0x0 /usr/local/msp430/bin/../lib/gcc/msp430/4.7.0/mmpy-16/libcrt0.a(__init_stack.o)
 .data          0x00000000        0x0 /usr/local/msp430/bin/../lib/gcc/msp430/4.7.0/mmpy-16/libcrt0.a(__init_stack.o)
 .bss           0x00000000        0x0 /usr/local/msp430/bin/../lib/gcc/msp430/4.7.0/mmpy-16/libcrt0.a(__init_stack.o)
 .text          0x00000000        0x0 /usr/local/msp430/bin/../lib/gcc/msp430/4.7.0/mmpy-16/libcrt0.a(__low_level_init.o)
 .data          0x00000000        0x0 /usr/local/msp430/bin/../lib/gcc/msp430/4.7.0/mmpy-16/libcrt0.a(__low_level_init.o)
 .bss           0x00000000        0x0 /usr/local/msp430/bin/../lib/gcc/msp430/4.7.0/mmpy-16/libcrt0.a(__low_level_init.o)
 .text          0x00000000        0x0 /usr/local/msp430/bin/../lib/gcc/msp430/4.7.0/mmpy-16/libcrt0.a(_copy_data.o)
 .data          0x00000000        0x0 /usr/local/msp430/bin/../lib/gcc/msp430/4.7.0/mmpy-16/libcrt0.a(_copy_data.o)
 .bss           0x00000000        0x0 /usr/local/msp430/bin/../lib/gcc/msp430/4.7.0/mmpy-16/libcrt0.a(_copy_data.o)
 .text          0x00000000        0x0 /usr/local/msp430/bin/../lib/gcc/msp430/4.7.0/mmpy-16/libcrt0.a(_clear_bss.o)
 .data          0x00000000        0x0 /usr/local/msp430/bin/../lib/gcc/msp430/4.7.0/mmpy-16/libcrt0.a(_clear_bss.o)
 .bss           0x00000000        0x0 /usr/local/msp430/bin/../lib/gcc/msp430/4.7.0/mmpy-16/libcrt0.a(_clear_bss.o)
 .text          0x00000000        0x0 /usr/local/msp430/bin/../lib/gcc/msp430/4.7.0/mmpy-16/libcrt0.a(__stop_progExec__.o)
 .data          0x00000000        0x0 /usr/local/msp430/bin/../lib/gcc/msp430/4.7.0/mmpy-16/libcrt0.a(__stop_progExec__.o)
 .bss           0x00000000        0x0 /usr/local/msp430/bin/../lib/gcc/msp430/4.7.0/mmpy-16/libcrt0.a(__stop_progExec__.o)
 .text          0x00000000        0x0 /usr/local/msp430/bin/../lib/gcc/msp430/4.7.0/mmpy-16/libcrt0.a(_endless_loop__.o)
 .data          0x00000000        0x0 /usr/local/msp430/bin/../lib/gcc/msp430/4.7.0/mmpy-16/libcrt0.a(_endless_loop__.o)
 .bss           0x00000000        0x0 /usr/local/msp430/bin/../lib/gcc/msp430/4.7.0/mmpy-16/libcrt0.a(_endless_loop__.o)
 .text          0x00000000        0x0 /usr/local/msp430/bin/../lib/gcc/msp430/4.7.0/mmpy-16/libcrt0.a(_unexpected_.o)
 .data          0x00000000        0x0 /usr/local/msp430/bin/../lib/gcc/msp430/4.7.0/mmpy-16/libcrt0.a(_unexpected_.o)
 .bss           0x00000000        0x0 /usr/local/msp430/bin/../lib/gcc/msp430/4.7.0/mmpy-16/libcrt0.a(_unexpected_.o)

Memory Configuration

Name             Origin             Length             Attributes
sfr              0x00000000         0x00000010
peripheral_8bit  0x00000010         0x000000f0
peripheral_16bit 0x00000100         0x00000100
ram_mirror       0x00000200         0x00000800         xw
infomem          0x00001000         0x00000100
infob            0x00001000         0x00000080
infoa            0x00001080         0x00000080
ram              0x00001100         0x00002800         xw
rom              0x00004000         0x0000bfe0         xr
vectors          0x0000ffe0         0x00000020
bsl              0x00000000         0x00000000
infoc            0x00000000         0x00000000
infod            0x00000000         0x00000000
ram2             0x00000000         0x00000000         xw
usbram           0x00000000         0x00000000         xw
far_rom          0x00000000         0x00000000
*default*        0x00000000         0xffffffff

Linker script and memory map

LOAD /usr/local/msp430/bin/../lib/gcc/msp430/4.7.0/mmpy-16/crt0ivtbl16.o
LOAD broadcast-example.co
LOAD obj_sky/contiki-sky-main.o
LOAD contiki-sky.a
LOAD /usr/local/msp430/bin/../lib/gcc/msp430/4.7.0/mmpy-16/libgcc.a
LOAD /usr/local/msp430/bin/../lib/gcc/msp430/4.7.0/../../../../msp430/lib/mmpy-16/libc.a
LOAD /usr/local/msp430/bin/../lib/gcc/msp430/4.7.0/mmpy-16/libgcc.a
LOAD /usr/local/msp430/bin/../lib/gcc/msp430/4.7.0/mmpy-16/libcrt0.a
                0x00000080                PROVIDE (__info_segment_size, 0x80)
                0x00001000                PROVIDE (__infob, 0x1000)
                0x00001080                PROVIDE (__infoa, 0x1080)
                0x00000000                __IE1 = 0x0
                0x00000002                __IFG1 = 0x2
                0x00000004                __ME1 = 0x4
                0x00000001                __IE2 = 0x1
                0x00000003                __IFG2 = 0x3
                0x00000005                __ME2 = 0x5
                0x00000120                __WDTCTL = 0x120
                0x00000130                __MPY = 0x130
                0x00000132                __MPYS = 0x132
                0x00000134                __MAC = 0x134
                0x00000136                __MACS = 0x136
                0x00000138                __OP2 = 0x138
                0x0000013a                __RESLO = 0x13a
                0x0000013c                __RESHI = 0x13c
                0x0000013e                __SUMEXT = 0x13e
                0x00000020                __P1IN = 0x20
                0x00000021                __P1OUT = 0x21
                0x00000022                __P1DIR = 0x22
                0x00000023                __P1IFG = 0x23
                0x00000024                __P1IES = 0x24
                0x00000025                __P1IE = 0x25
                0x00000026                __P1SEL = 0x26
                0x00000028                __P2IN = 0x28
                0x00000029                __P2OUT = 0x29
                0x0000002a                __P2DIR = 0x2a
                0x0000002b                __P2IFG = 0x2b
                0x0000002c                __P2IES = 0x2c
                0x0000002d                __P2IE = 0x2d
                0x0000002e                __P2SEL = 0x2e
                0x00000018                __P3IN = 0x18
                0x00000019                __P3OUT = 0x19
                0x0000001a                __P3DIR = 0x1a
                0x0000001b                __P3SEL = 0x1b
                0x0000001c                __P4IN = 0x1c
                0x0000001d                __P4OUT = 0x1d
                0x0000001e                __P4DIR = 0x1e
                0x0000001f                __P4SEL = 0x1f
                0x00000030                __P5IN = 0x30
                0x00000031                __P5OUT = 0x31
                0x00000032                __P5DIR = 0x32
                0x00000033                __P5SEL = 0x33
                0x00000034                __P6IN = 0x34
                0x00000035                __P6OUT = 0x35
                0x00000036                __P6DIR = 0x36
                0x00000037                __P6SEL = 0x37
                0x00000070                __U0CTL = 0x70
                0x00000071                __U0TCTL = 0x71
                0x00000072                __U0RCTL = 0x72
                0x00000073                __U0MCTL = 0x73
                0x00000074                __U0BR0 = 0x74
                0x00000075                __U0BR1 = 0x75
                0x00000076                __U0RXBUF = 0x76
                0x00000077                __U0TXBUF = 0x77
                0x00000078                __U1CTL = 0x78
                0x00000079                __U1TCTL = 0x79
                0x0000007a                __U1RCTL = 0x7a
                0x0000007b                __U1MCTL = 0x7b
                0x0000007c                __U1BR0 = 0x7c
                0x0000007d                __U1BR1 = 0x7d
                0x0000007e                __U1RXBUF = 0x7e
                0x0000007f                __U1TXBUF = 0x7f
                0x00000050                __I2CIE = 0x50
                0x00000051                __I2CIFG = 0x51
                0x00000052                __I2CNDAT = 0x52
                0x00000071                __I2CTCTL = 0x71
                0x00000072                __I2CDCTL = 0x72
                0x00000073                __I2CPSC = 0x73
                0x00000074                __I2CSCLH = 0x74
                0x00000075                __I2CSCLL = 0x75
                0x00000076                __I2CDRB = 0x76
                0x00000076                __I2CDRW = 0x76
                0x00000118                __I2COA = 0x118
                0x0000011a                __I2CSA = 0x11a
                0x0000011c                __I2CIV = 0x11c
                0x0000012e                __TAIV = 0x12e
                0x00000160                __TACTL = 0x160
                0x00000162                __TACCTL0 = 0x162
                0x00000164                __TACCTL1 = 0x164
                0x00000166                __TACCTL2 = 0x166
                0x00000170                __TAR = 0x170
                0x00000172                __TACCR0 = 0x172
                0x00000174                __TACCR1 = 0x174
                0x00000176                __TACCR2 = 0x176
                0x0000011e                __TBIV = 0x11e
                0x00000180                __TBCTL = 0x180
                0x00000182                __TBCCTL0 = 0x182
                0x00000184                __TBCCTL1 = 0x184
                0x00000186                __TBCCTL2 = 0x186
                0x00000188                __TBCCTL3 = 0x188
                0x0000018a                __TBCCTL4 = 0x18a
                0x0000018c                __TBCCTL5 = 0x18c
                0x0000018e                __TBCCTL6 = 0x18e
                0x00000190                __TBR = 0x190
                0x00000192                __TBCCR0 = 0x192
                0x00000194                __TBCCR1 = 0x194
                0x00000196                __TBCCR2 = 0x196
                0x00000198                __TBCCR3 = 0x198
                0x0000019a                __TBCCR4 = 0x19a
                0x0000019c                __TBCCR5 = 0x19c
                0x0000019e                __TBCCR6 = 0x19e
                0x00000056                __DCOCTL = 0x56
                0x00000057                __BCSCTL1 = 0x57
                0x00000058                __BCSCTL2 = 0x58
                0x00000055                __SVSCTL = 0x55
                0x00000128                __FCTL1 = 0x128
                0x0000012a                __FCTL2 = 0x12a
                0x0000012c                __FCTL3 = 0x12c
                0x00000059                __CACTL1 = 0x59
                0x0000005a                __CACTL2 = 0x5a
                0x0000005b                __CAPD = 0x5b
                0x000001a0                __ADC12CTL0 = 0x1a0
                0x000001a2                __ADC12CTL1 = 0x1a2
                0x000001a4                __ADC12IFG = 0x1a4
                0x000001a6                __ADC12IE = 0x1a6
                0x000001a8                __ADC12IV = 0x1a8
                0x00000140                __ADC12MEM0 = 0x140
                0x00000142                __ADC12MEM1 = 0x142
                0x00000144                __ADC12MEM2 = 0x144
                0x00000146                __ADC12MEM3 = 0x146
                0x00000148                __ADC12MEM4 = 0x148
                0x0000014a                __ADC12MEM5 = 0x14a
                0x0000014c                __ADC12MEM6 = 0x14c
                0x0000014e                __ADC12MEM7 = 0x14e
                0x00000150                __ADC12MEM8 = 0x150
                0x00000152                __ADC12MEM9 = 0x152
                0x00000154                __ADC12MEM10 = 0x154
                0x00000156                __ADC12MEM11 = 0x156
                0x00000158                __ADC12MEM12 = 0x158
                0x0000015a                __ADC12MEM13 = 0x15a
                0x0000015c                __ADC12MEM14 = 0x15c
                0x0000015e                __ADC12MEM15 = 0x15e
                0x00000080                __ADC12MCTL0 = 0x80
                0x00000081                __ADC12MCTL1 = 0x81
                0x00000082                __ADC12MCTL2 = 0x82
                0x00000083                __ADC12MCTL3 = 0x83
                0x00000084                __ADC12MCTL4 = 0x84
                0x00000085                __ADC12MCTL5 = 0x85
                0x00000086                __ADC12MCTL6 = 0x86
                0x00000087                __ADC12MCTL7 = 0x87
                0x00000088                __ADC12MCTL8 = 0x88
                0x00000089                __ADC12MCTL9 = 0x89
                0x0000008a                __ADC12MCTL10 = 0x8a
                0x0000008b                __ADC12MCTL11 = 0x8b
                0x0000008c                __ADC12MCTL12 = 0x8c
                0x0000008d                __ADC12MCTL13 = 0x8d
                0x0000008e                __ADC12MCTL14 = 0x8e
                0x0000008f                __ADC12MCTL15 = 0x8f
                0x000001c0                __DAC12_0CTL = 0x1c0
                0x000001c2                __DAC12_1CTL = 0x1c2
                0x000001c8                __DAC12_0DAT = 0x1c8
                0x000001ca                __DAC12_1DAT = 0x1ca
                0x00000122                __DMACTL0 = 0x122
                0x00000124                __DMACTL1 = 0x124
                0x000001e0                __DMA0CTL = 0x1e0
                0x000001e8                __DMA1CTL = 0x1e8
                0x000001f0                __DMA2CTL = 0x1f0
                0x000001e2                __DMA0SA = 0x1e2
                0x000001e4                __DMA0DA = 0x1e4
                0x000001e6                __DMA0SZ = 0x1e6
                0x000001ea                __DMA1SA = 0x1ea
                0x000001ec                __DMA1DA = 0x1ec
                0x000001ee                __DMA1SZ = 0x1ee
                0x000001f2                __DMA2SA = 0x1f2
                0x000001f4                __DMA2DA = 0x1f4
                0x000001f6                __DMA2SZ = 0x1f6

.hash
 *(.hash)

.dynsym
 *(.dynsym)

.dynstr
 *(.dynstr)

.gnu.version
 *(.gnu.version)

.gnu.version_d
 *(.gnu.version_d)

.gnu.version_r
 *(.gnu.version_r)

.rel.init
 *(.rel.init)

.rela.init
 *(.rela.init)

.rel.fini
 *(.rel.fini)

.rela.fini
 *(.rela.fini)

.rel.text
 *(.rel.text .rel.text.* .rel.gnu.linkonce.t.*)

.rela.text
 *(.rela.text .rela.text.* .rela.gnu.linkonce.t.*)

.rel.rodata
 *(.rel.rodata .rel.rodata.* .rel.gnu.linkonce.r.*)

.rela.rodata
 *(.rela.rodata .rela.rodata.* .rela.gnu.linkonce.r.*)

.rel.data
 *(.rel.data .rel.data.* .rel.gnu.linkonce.d.*)

.rela.data
 *(.rela.data .rela.data.* .rela.gnu.linkonce.d.*)

.rel.bss
 *(.rel.bss .rel.bss.* .rel.gnu.linkonce.b.*)

.rela.bss
 *(.rela.bss .rela.bss.* .rela.gnu.linkonce.b.*)

.rel.ctors
 *(.rel.ctors)

.rela.ctors
 *(.rela.ctors)

.rel.dtors
 *(.rel.dtors)

.rela.dtors
 *(.rela.dtors)

.rel.got
 *(.rel.got)

.rela.got
 *(.rela.got)

.rel.plt
 *(.rel.plt)

.rela.plt
 *(.rela.plt)

.text           0x00004000     0xa612
                0x00004000                . = ALIGN (0x2)
 *(.init .init.*)
 *(.init0)
 .init0         0x00004000        0x0 /usr/local/msp430/bin/../lib/gcc/msp430/4.7.0/mmpy-16/libcrt0.a(_reset_vector__.o)
                0x00004000                _reset_vector__
 *(.init1)
 .init1         0x00004000        0xc /usr/local/msp430/bin/../lib/gcc/msp430/4.7.0/mmpy-16/libcrt0.a(__watchdog_support.o)
                0x00004000                __watchdog_support
 *(.init2)
 .init2         0x0000400c        0x4 /usr/local/msp430/bin/../lib/gcc/msp430/4.7.0/mmpy-16/libcrt0.a(__init_stack.o)
                0x0000400c                __init_stack
 *(.init3)
 .init3         0x00004010        0x0 /usr/local/msp430/bin/../lib/gcc/msp430/4.7.0/mmpy-16/libcrt0.a(__low_level_init.o)
                0x00004010                __low_level_init
 *(.init4)
 .init4         0x00004010       0x18 /usr/local/msp430/bin/../lib/gcc/msp430/4.7.0/mmpy-16/libcrt0.a(_copy_data.o)
                0x00004010                __do_copy_data
 .init4         0x00004028       0x16 /usr/local/msp430/bin/../lib/gcc/msp430/4.7.0/mmpy-16/libcrt0.a(_clear_bss.o)
                0x00004028                __do_clear_bss
 *(.init5)
 *(.init6)
 *(.init7)
 *(.init8)
 *(.init9)
 .init9         0x0000403e      0x2d6 obj_sky/contiki-sky-main.o
                0x0000403e                main
 *(.fini9)
 .fini9         0x00004314        0x0 /usr/local/msp430/bin/../lib/gcc/msp430/4.7.0/mmpy-16/libcrt0.a(__stop_progExec__.o)
                0x00004314                __stop_progExec__
 *(.fini8)
 *(.fini7)
 *(.fini6)
 *(.fini5)
 *(.fini4)
 *(.fini3)
 *(.fini2)
 *(.fini1)
 *(.fini0)
 .fini0         0x00004314        0x6 /usr/local/msp430/bin/../lib/gcc/msp430/4.7.0/mmpy-16/libcrt0.a(_endless_loop__.o)
                0x00004314                _endless_loop__
 *(.fini .fini.*)
                0x0000431a                . = ALIGN (0x2)
                0x0000431a                __ctors_start = .
 *(.ctors)
                0x0000431a                __ctors_end = .
                0x0000431a                __dtors_start = .
 *(.dtors)
                0x0000431a                __dtors_end = .
                0x0000431a                . = ALIGN (0x2)
 *(.text .text.* .gnu.linkonce.t.*)
 .text          0x0000431a        0x4 /usr/local/msp430/bin/../lib/gcc/msp430/4.7.0/mmpy-16/crt0ivtbl16.o
                0x0000431a                __isr_14
                0x0000431a                __isr_11
                0x0000431a                __isr_2
                0x0000431a                __isr_7
                0x0000431a                __isr_0
                0x0000431a                __isr_8
                0x0000431a                __isr_3
                0x0000431a                __isr_12
                0x0000431a                __isr_13
                0x0000431a                __isr_9
 .text.process_thread_broadcast_example_process
                0x0000431e       0xde broadcast-example.co
 .text.receiver
                0x000043fc       0x16 broadcast-example.co
 .text.start_network_layer
                0x00004412       0xa2 obj_sky/contiki-sky-main.o
 .text.init_platform
                0x000044b4        0xc contiki-sky.a(contiki-sky-pla)
                0x000044b4                init_platform
 .text.status   0x000044c0       0x18 contiki-sky.a(button-sensor.o)
 .text.value    0x000044d8       0x20 contiki-sky.a(button-sensor.o)
 .text.configure
                0x000044f8       0x4c contiki-sky.a(button-sensor.o)
 .text.irq_p2   0x00004544       0x88 contiki-sky.a(button-sensor.o)
                0x00004544                irq_p2
                0x00004544                __isr_1
 .text.owreadb  0x000045cc       0x50 contiki-sky.a(ds2411.o)
 .text.ds2411_init
                0x0000461c      0x120 contiki-sky.a(ds2411.o)
                0x0000461c                ds2411_init
 .text.wait_ready
                0x0000473c       0x4a contiki-sky.a(xmem.o)
 .text.xmem_init
                0x00004786       0x3c contiki-sky.a(xmem.o)
                0x00004786                xmem_init
 .text.xmem_pread
                0x000047c2       0xe0 contiki-sky.a(xmem.o)
                0x000047c2                xmem_pread
 .text.node_id_restore
                0x000048a2       0x38 contiki-sky.a(node-id.o)
                0x000048a2                node_id_restore
 .text.process_thread_sensors_process
                0x000048da       0xc2 contiki-sky.a(sensors.o)
 .text.sensors_changed
                0x0000499c       0x2a contiki-sky.a(sensors.o)
                0x0000499c                sensors_changed
 .text.get_object
                0x000049c6        0x4 contiki-sky.a(cc2420.o)
 .text.set_object
                0x000049ca        0x4 contiki-sky.a(cc2420.o)
 .text.strobe   0x000049ce       0x1c contiki-sky.a(cc2420.o)
 .text.getreg   0x000049ea       0x4c contiki-sky.a(cc2420.o)
 .text.setreg   0x00004a36       0x4c contiki-sky.a(cc2420.o)
 .text.write_ram
                0x00004a82       0x7c contiki-sky.a(cc2420.o)
 .text.write_fifo_buf
                0x00004afe       0x3c contiki-sky.a(cc2420.o)
 .text.get_status
                0x00004b3a       0x20 contiki-sky.a(cc2420.o)
 .text.set_txpower
                0x00004b5a       0x24 contiki-sky.a(cc2420.o)
 .text.cc2420_receiving_packet
                0x00004b7e        0xc contiki-sky.a(cc2420.o)
 .text.pending_packet
                0x00004b8a        0x8 contiki-sky.a(cc2420.o)
 .text.on       0x00004b92       0x1e contiki-sky.a(cc2420.o)
 .text.wait_for_transmission
                0x00004bb0       0x22 contiki-sky.a(cc2420.o)
 .text.wait_for_status
                0x00004bd2       0x28 contiki-sky.a(cc2420.o)
 .text.getrxdata
                0x00004bfa       0x50 contiki-sky.a(cc2420.o)
 .text.flushrx  0x00004c4a       0x1a contiki-sky.a(cc2420.o)
 .text.off      0x00004c64       0x56 contiki-sky.a(cc2420.o)
 .text.RELEASE_LOCK
                0x00004cba       0x28 contiki-sky.a(cc2420.o)
 .text.set_key  0x00004ce2       0x18 contiki-sky.a(cc2420.o)
 .text.cc2420_prepare
                0x00004cfa       0x3c contiki-sky.a(cc2420.o)
 .text.cc2420_on
                0x00004d36       0x22 contiki-sky.a(cc2420.o)
                0x00004d36                cc2420_on
 .text.cc2420_off
                0x00004d58       0x30 contiki-sky.a(cc2420.o)
                0x00004d58                cc2420_off
 .text.cc2420_cca
                0x00004d88       0x68 contiki-sky.a(cc2420.o)
 .text.cc2420_read
                0x00004df0       0xac contiki-sky.a(cc2420.o)
 .text.process_thread_cc2420_process
                0x00004e9c       0x54 contiki-sky.a(cc2420.o)
 .text.encrypt  0x00004ef0       0x88 contiki-sky.a(cc2420.o)
 .text.cc2420_set_channel
                0x00004f78       0x3c contiki-sky.a(cc2420.o)
                0x00004f78                cc2420_set_channel
 .text.cc2420_set_pan_addr
                0x00004fb4       0x4c contiki-sky.a(cc2420.o)
                0x00004fb4                cc2420_set_pan_addr
 .text.cc2420_interrupt
                0x00005000       0x16 contiki-sky.a(cc2420.o)
                0x00005000                cc2420_interrupt
 .text.cc2420_set_txpower
                0x00005016        0xe contiki-sky.a(cc2420.o)
                0x00005016                cc2420_set_txpower
 .text.cc2420_get_txpower
                0x00005024       0x1e contiki-sky.a(cc2420.o)
                0x00005024                cc2420_get_txpower
 .text.cc2420_transmit
                0x00005042      0x110 contiki-sky.a(cc2420.o)
 .text.cc2420_send
                0x00005152       0x12 contiki-sky.a(cc2420.o)
 .text.cc2420_rssi
                0x00005164       0x4c contiki-sky.a(cc2420.o)
                0x00005164                cc2420_rssi
 .text.get_value
                0x000051b0       0xa8 contiki-sky.a(cc2420.o)
 .text.cc2420_set_cca_threshold
                0x00005258       0x16 contiki-sky.a(cc2420.o)
                0x00005258                cc2420_set_cca_threshold
 .text.set_value
                0x0000526e       0x86 contiki-sky.a(cc2420.o)
 .text.cc2420_init
                0x000052f4       0xd8 contiki-sky.a(cc2420.o)
                0x000052f4                cc2420_init
 .text.cc2420_port1_interrupt
                0x000053cc       0x62 contiki-sky.a(cc2420-arch.o)
                0x000053cc                __isr_4
                0x000053cc                cc2420_port1_interrupt
 .text.cc2420_arch_init
                0x0000542e       0x1a contiki-sky.a(cc2420-arch.o)
                0x0000542e                cc2420_arch_init
 .text.uart1_active
                0x00005448       0x18 contiki-sky.a(uart1.o)
                0x00005448                uart1_active
 .text.uart1_writeb
                0x00005460       0x18 contiki-sky.a(uart1.o)
                0x00005460                uart1_writeb
 .text.uart1_init
                0x00005478       0xf4 contiki-sky.a(uart1.o)
                0x00005478                uart1_init
 .text.putchar  0x0000556c       0x10 contiki-sky.a(uart1-putchar.o)
                0x0000556c                putchar
 .text.msp430_init_dco
                0x0000557c       0x82 contiki-sky.a(msp430.o)
                0x0000557c                msp430_init_dco
 .text.msp430_add_lpm_req
                0x000055fe        0xc contiki-sky.a(msp430.o)
                0x000055fe                msp430_add_lpm_req
 .text.msp430_cpu_init
                0x0000560a       0x2a contiki-sky.a(msp430.o)
                0x0000560a                msp430_cpu_init
 .text.splhigh_
                0x00005634        0x8 contiki-sky.a(msp430.o)
                0x00005634                splhigh_
 .text.msp430_sync_dco
                0x0000563c       0x6c contiki-sky.a(msp430.o)
                0x0000563c                msp430_sync_dco
 .text.timera1  0x000056a8      0x11e contiki-sky.a(clock.o)
                0x000056a8                __isr_5
                0x000056a8                timera1
 .text.clock_time
                0x000057c6       0x1a contiki-sky.a(clock.o)
                0x000057c6                clock_time
 .text.clock_init
                0x000057e0       0x28 contiki-sky.a(clock.o)
                0x000057e0                clock_init
 .text.clock_delay
                0x00005808        0xc contiki-sky.a(clock.o)
                0x00005808                clock_delay
 .text.clock_seconds
                0x00005814       0x1a contiki-sky.a(clock.o)
                0x00005814                clock_seconds
 .text.show_leds
                0x0000582e       0xf0 contiki-sky.a(leds.o)
 .text.leds_init
                0x0000591e        0xa contiki-sky.a(leds.o)
                0x0000591e                leds_init
 .text.leds_on  0x00005928        0xa contiki-sky.a(leds.o)
                0x00005928                leds_on
 .text.leds_off
                0x00005932        0xe contiki-sky.a(leds.o)
                0x00005932                leds_off
 .text.leds_arch_init
                0x00005940        0xe contiki-sky.a(leds-arch.o)
                0x00005940                leds_arch_init
 .text.leds_arch_set
                0x0000594e       0x38 contiki-sky.a(leds-arch.o)
                0x0000594e                leds_arch_set
 .text.watchdog_interrupt
                0x00005986        0x6 contiki-sky.a(watchdog.o)
                0x00005986                __isr_10
                0x00005986                watchdog_interrupt
 .text.watchdog_start
                0x0000598c       0x14 contiki-sky.a(watchdog.o)
                0x0000598c                watchdog_start
 .text.watchdog_periodic
                0x000059a0       0x12 contiki-sky.a(watchdog.o)
                0x000059a0                watchdog_periodic
 .text.watchdog_stop
                0x000059b2       0x16 contiki-sky.a(watchdog.o)
                0x000059b2                watchdog_stop
 .text.watchdog_init
                0x000059c8       0x12 contiki-sky.a(watchdog.o)
                0x000059c8                watchdog_init
 .text.rtimer_arch_init
                0x000059da        0xe contiki-sky.a(rtimer-arch.o)
                0x000059da                rtimer_arch_init
 .text.rtimer_arch_now
                0x000059e8        0xe contiki-sky.a(rtimer-arch.o)
                0x000059e8                rtimer_arch_now
 .text.timera0  0x000059f6       0x70 contiki-sky.a(rtimer-arch.o)
                0x000059f6                __isr_6
                0x000059f6                timera0
 .text.rtimer_arch_schedule
                0x00005a66        0x6 contiki-sky.a(rtimer-arch.o)
                0x00005a66                rtimer_arch_schedule
 .text.autostart_start
                0x00005a6c       0x16 contiki-sky.a(autostart.o)
                0x00005a6c                autostart_start
 .text.process_thread_ctimer_process
                0x00005a82       0xa8 contiki-sky.a(ctimer.o)
 .text.ctimer_init
                0x00005b2a       0x18 contiki-sky.a(ctimer.o)
                0x00005b2a                ctimer_init
 .text.ctimer_set
                0x00005b42       0x50 contiki-sky.a(ctimer.o)
                0x00005b42                ctimer_set
 .text.ctimer_reset
                0x00005b92       0x30 contiki-sky.a(ctimer.o)
                0x00005b92                ctimer_reset
 .text.ctimer_stop
                0x00005bc2       0x28 contiki-sky.a(ctimer.o)
                0x00005bc2                ctimer_stop
 .text.energest_init
                0x00005bea       0x26 contiki-sky.a(energest.o)
                0x00005bea                energest_init
 .text.energest_type_time
                0x00005c10       0x48 contiki-sky.a(energest.o)
                0x00005c10                energest_type_time
 .text.energest_type_set
                0x00005c58        0xe contiki-sky.a(energest.o)
                0x00005c58                energest_type_set
 .text.energest_flush
                0x00005c66       0x48 contiki-sky.a(energest.o)
                0x00005c66                energest_flush
 .text.update_time
                0x00005cae       0x78 contiki-sky.a(etimer.o)
 .text.etimer_request_poll
                0x00005d26        0xa contiki-sky.a(etimer.o)
                0x00005d26                etimer_request_poll
 .text.process_thread_etimer_process
                0x00005d30       0xcc contiki-sky.a(etimer.o)
 .text.add_timer
                0x00005dfc       0x40 contiki-sky.a(etimer.o)
 .text.etimer_set
                0x00005e3c       0x12 contiki-sky.a(etimer.o)
                0x00005e3c                etimer_set
 .text.etimer_reset
                0x00005e4e       0x12 contiki-sky.a(etimer.o)
                0x00005e4e                etimer_reset
 .text.etimer_restart
                0x00005e60       0x12 contiki-sky.a(etimer.o)
                0x00005e60                etimer_restart
 .text.etimer_expired
                0x00005e72        0xe contiki-sky.a(etimer.o)
                0x00005e72                etimer_expired
 .text.etimer_expiration_time
                0x00005e80       0x14 contiki-sky.a(etimer.o)
                0x00005e80                etimer_expiration_time
 .text.etimer_pending
                0x00005e94        0xc contiki-sky.a(etimer.o)
                0x00005e94                etimer_pending
 .text.etimer_next_expiration_time
                0x00005ea0       0x16 contiki-sky.a(etimer.o)
                0x00005ea0                etimer_next_expiration_time
 .text.etimer_stop
                0x00005eb6       0x3e contiki-sky.a(etimer.o)
                0x00005eb6                etimer_stop
 .text.call_process
                0x00005ef4       0x46 contiki-sky.a(process.o)
 .text.exit_process
                0x00005f3a       0x96 contiki-sky.a(process.o)
 .text.do_poll  0x00005fd0       0x30 contiki-sky.a(process.o)
 .text.process_alloc_event
                0x00006000        0xe contiki-sky.a(process.o)
                0x00006000                process_alloc_event
 .text.process_init
                0x0000600e       0x1c contiki-sky.a(process.o)
                0x0000600e                process_init
 .text.process_run
                0x0000602a       0xa2 contiki-sky.a(process.o)
                0x0000602a                process_run
 .text.process_nevents
                0x000060cc        0xe contiki-sky.a(process.o)
                0x000060cc                process_nevents
 .text.process_post
                0x000060da       0x54 contiki-sky.a(process.o)
                0x000060da                process_post
 .text.process_post_synch
                0x0000612e       0x12 contiki-sky.a(process.o)
                0x0000612e                process_post_synch
 .text.process_start
                0x00006140       0x36 contiki-sky.a(process.o)
                0x00006140                process_start
 .text.process_poll
                0x00006176       0x18 contiki-sky.a(process.o)
                0x00006176                process_poll
 .text.rtimer_init
                0x0000618e        0x6 contiki-sky.a(rtimer.o)
                0x0000618e                rtimer_init
 .text.rtimer_set
                0x00006194       0x24 contiki-sky.a(rtimer.o)
                0x00006194                rtimer_set
 .text.rtimer_run_next
                0x000061b8       0x26 contiki-sky.a(rtimer.o)
                0x000061b8                rtimer_run_next
 .text.timer_set
                0x000061de       0x1c contiki-sky.a(timer.o)
                0x000061de                timer_set
 .text.timer_reset
                0x000061fa        0xe contiki-sky.a(timer.o)
                0x000061fa                timer_reset
 .text.timer_restart
                0x00006208       0x14 contiki-sky.a(timer.o)
                0x00006208                timer_restart
 .text.timer_expired
                0x0000621c       0x2a contiki-sky.a(timer.o)
                0x0000621c                timer_expired
 .text.list_init
                0x00006246        0x6 contiki-sky.a(list.o)
                0x00006246                list_init
 .text.list_head
                0x0000624c        0x4 contiki-sky.a(list.o)
                0x0000624c                list_head
 .text.list_tail
                0x00006250       0x12 contiki-sky.a(list.o)
                0x00006250                list_tail
 .text.list_remove
                0x00006262       0x34 contiki-sky.a(list.o)
                0x00006262                list_remove
 .text.list_push
                0x00006296       0x1a contiki-sky.a(list.o)
                0x00006296                list_push
 .text.list_add
                0x000062b0       0x2a contiki-sky.a(list.o)
                0x000062b0                list_add
 .text.list_length
                0x000062da       0x10 contiki-sky.a(list.o)
                0x000062da                list_length
 .text.list_item_next
                0x000062ea        0xc contiki-sky.a(list.o)
                0x000062ea                list_item_next
 .text.random_init
                0x000062f6        0x6 contiki-sky.a(random.o)
                0x000062f6                random_init
 .text.random_rand
                0x000062fc        0x6 contiki-sky.a(random.o)
                0x000062fc                random_rand
 .text.set_packet_attrs
                0x00006302       0x46 contiki-sky.a(sicslowpan.o)
 .text.addr_context_lookup_by_number
                0x00006348       0x32 contiki-sky.a(sicslowpan.o)
 .text.compress_addr_64
                0x0000637a       0xae contiki-sky.a(sicslowpan.o)
 .text.uncompress_addr
                0x00006428       0xb4 contiki-sky.a(sicslowpan.o)
 .text.input    0x000064dc      0x64e contiki-sky.a(sicslowpan.o)
 .text.sicslowpan_init
                0x00006b2a       0x26 contiki-sky.a(sicslowpan.o)
                0x00006b2a                sicslowpan_init
 .text.addr_context_lookup_by_prefix
                0x00006b50       0x4c contiki-sky.a(sicslowpan.o)
 .text.packet_sent
                0x00006b9c       0x22 contiki-sky.a(sicslowpan.o)
 .text.send_packet
                0x00006bbe       0x1a contiki-sky.a(sicslowpan.o)
 .text.output   0x00006bd8      0x6c6 contiki-sky.a(sicslowpan.o)
 .text.chksum   0x0000729e       0x32 contiki-sky.a(uip6.o)
 .text.upper_layer_chksum
                0x000072d0       0x56 contiki-sky.a(uip6.o)
 .text.ext_hdr_options_process
                0x00007326       0xd0 contiki-sky.a(uip6.o)
 .text.uip_add32
                0x000073f6       0x68 contiki-sky.a(uip6.o)
                0x000073f6                uip_add32
 .text.uip_add_rcv_nxt
                0x0000745e       0x2e contiki-sky.a(uip6.o)
 .text.uip_icmp6chksum
                0x0000748c        0xa contiki-sky.a(uip6.o)
                0x0000748c                uip_icmp6chksum
 .text.uip_tcpchksum
                0x00007496        0xa contiki-sky.a(uip6.o)
                0x00007496                uip_tcpchksum
 .text.uip_udpchksum
                0x000074a0        0xa contiki-sky.a(uip6.o)
                0x000074a0                uip_udpchksum
 .text.uip_init
                0x000074aa       0x7a contiki-sky.a(uip6.o)
                0x000074aa                uip_init
 .text.remove_ext_hdr
                0x00007524       0x58 contiki-sky.a(uip6.o)
                0x00007524                remove_ext_hdr
 .text.uip_udp_new
                0x0000757c       0xe4 contiki-sky.a(uip6.o)
                0x0000757c                uip_udp_new
 .text.uip_unlisten
                0x00007660       0x2a contiki-sky.a(uip6.o)
                0x00007660                uip_unlisten
 .text.uip_process
                0x0000768a      0xe8e contiki-sky.a(uip6.o)
                0x0000768a                uip_process
 .text.uip_htonl
                0x00008518       0x2e contiki-sky.a(uip6.o)
                0x00008518                uip_htonl
 .text.uip_ds6_list_loop
                0x00008546       0x86 contiki-sky.a(uip-ds6.o)
                0x00008546                uip_ds6_list_loop
 .text.uip_ds6_prefix_add
                0x000085cc       0x80 contiki-sky.a(uip-ds6.o)
                0x000085cc                uip_ds6_prefix_add
 .text.uip_ds6_is_addr_onlink
                0x0000864c       0x54 contiki-sky.a(uip-ds6.o)
                0x0000864c                uip_ds6_is_addr_onlink
 .text.uip_ds6_addr_lookup
                0x000086a0       0x2a contiki-sky.a(uip-ds6.o)
                0x000086a0                uip_ds6_addr_lookup
 .text.uip_ds6_get_link_local
                0x000086ca       0x3e contiki-sky.a(uip-ds6.o)
                0x000086ca                uip_ds6_get_link_local
 .text.uip_ds6_maddr_add
                0x00008708       0x4c contiki-sky.a(uip-ds6.o)
                0x00008708                uip_ds6_maddr_add
 .text.uip_ds6_addr_add
                0x00008754       0xc4 contiki-sky.a(uip-ds6.o)
                0x00008754                uip_ds6_addr_add
 .text.uip_ds6_maddr_rm
                0x00008818        0xa contiki-sky.a(uip-ds6.o)
                0x00008818                uip_ds6_maddr_rm
 .text.uip_ds6_maddr_lookup
                0x00008822       0x2a contiki-sky.a(uip-ds6.o)
                0x00008822                uip_ds6_maddr_lookup
 .text.uip_ds6_addr_rm
                0x0000884c       0x54 contiki-sky.a(uip-ds6.o)
                0x0000884c                uip_ds6_addr_rm
 .text.uip_ds6_periodic
                0x000088a0       0x4a contiki-sky.a(uip-ds6.o)
                0x000088a0                uip_ds6_periodic
 .text.uip_ds6_set_addr_iid
                0x000088ea       0x14 contiki-sky.a(uip-ds6.o)
                0x000088ea                uip_ds6_set_addr_iid
 .text.get_match_length
                0x000088fe       0x44 contiki-sky.a(uip-ds6.o)
                0x000088fe                get_match_length
 .text.uip_ds6_select_src
                0x00008942       0xaa contiki-sky.a(uip-ds6.o)
                0x00008942                uip_ds6_select_src
 .text.uip_ds6_compute_reachable_time
                0x000089ec       0x3e contiki-sky.a(uip-ds6.o)
                0x000089ec                uip_ds6_compute_reachable_time
 .text.uip_ds6_init
                0x00008a2a      0x154 contiki-sky.a(uip-ds6.o)
                0x00008a2a                uip_ds6_init
 .text.uip_ds6_nbr_rm
                0x00008b7e       0x1a contiki-sky.a(uip-ds6-nbr.o)
                0x00008b7e                uip_ds6_nbr_rm
 .text.uip_ds6_neighbors_init
                0x00008b98        0xe contiki-sky.a(uip-ds6-nbr.o)
                0x00008b98                uip_ds6_neighbors_init
 .text.uip_ds6_nbr_add
                0x00008ba6       0x60 contiki-sky.a(uip-ds6-nbr.o)
                0x00008ba6                uip_ds6_nbr_add
 .text.uip_ds6_nbr_get_ll
                0x00008c06        0xc contiki-sky.a(uip-ds6-nbr.o)
                0x00008c06                uip_ds6_nbr_get_ll
 .text.uip_ds6_nbr_lookup
                0x00008c12       0x42 contiki-sky.a(uip-ds6-nbr.o)
                0x00008c12                uip_ds6_nbr_lookup
 .text.uip_ds6_nbr_ll_lookup
                0x00008c54        0xc contiki-sky.a(uip-ds6-nbr.o)
                0x00008c54                uip_ds6_nbr_ll_lookup
 .text.uip_ds6_nbr_ipaddr_from_lladdr
                0x00008c60        0x6 contiki-sky.a(uip-ds6-nbr.o)
                0x00008c60                uip_ds6_nbr_ipaddr_from_lladdr
 .text.uip_ds6_nbr_lladdr_from_ipaddr
                0x00008c66       0x12 contiki-sky.a(uip-ds6-nbr.o)
                0x00008c66                uip_ds6_nbr_lladdr_from_ipaddr
 .text.uip_ds6_link_neighbor_callback
                0x00008c78       0x2a contiki-sky.a(uip-ds6-nbr.o)
                0x00008c78                uip_ds6_link_neighbor_callback
 .text.uip_ds6_neighbor_periodic
                0x00008ca2       0x60 contiki-sky.a(uip-ds6-nbr.o)
                0x00008ca2                uip_ds6_neighbor_periodic
 .text.call_route_callback
                0x00008d02       0x4c contiki-sky.a(uip-ds6-route.o)
 .text.uip_ds6_route_init
                0x00008d4e       0x36 contiki-sky.a(uip-ds6-route.o)
                0x00008d4e                uip_ds6_route_init
 .text.uip_ds6_route_nexthop
                0x00008d84       0x1a contiki-sky.a(uip-ds6-route.o)
                0x00008d84                uip_ds6_route_nexthop
 .text.uip_ds6_route_head
                0x00008d9e        0xa contiki-sky.a(uip-ds6-route.o)
                0x00008d9e                uip_ds6_route_head
 .text.uip_ds6_route_next
                0x00008da8        0xe contiki-sky.a(uip-ds6-route.o)
                0x00008da8                uip_ds6_route_next
 .text.uip_ds6_route_lookup
                0x00008db6       0x8c contiki-sky.a(uip-ds6-route.o)
                0x00008db6                uip_ds6_route_lookup
 .text.uip_ds6_route_rm
                0x00008e42       0xa6 contiki-sky.a(uip-ds6-route.o)
                0x00008e42                uip_ds6_route_rm
 .text.rm_routelist
                0x00008ee8       0x34 contiki-sky.a(uip-ds6-route.o)
 .text.rm_routelist_callback
                0x00008f1c        0x6 contiki-sky.a(uip-ds6-route.o)
 .text.uip_ds6_route_add
                0x00008f22      0x10c contiki-sky.a(uip-ds6-route.o)
                0x00008f22                uip_ds6_route_add
 .text.uip_ds6_defrt_rm
                0x0000902e       0x48 contiki-sky.a(uip-ds6-route.o)
                0x0000902e                uip_ds6_defrt_rm
 .text.uip_ds6_defrt_lookup
                0x00009076       0x36 contiki-sky.a(uip-ds6-route.o)
                0x00009076                uip_ds6_defrt_lookup
 .text.uip_ds6_defrt_add
                0x000090ac       0x74 contiki-sky.a(uip-ds6-route.o)
                0x000090ac                uip_ds6_defrt_add
 .text.uip_ds6_defrt_choose
                0x00009120       0x3a contiki-sky.a(uip-ds6-route.o)
                0x00009120                uip_ds6_defrt_choose
 .text.uip_ds6_defrt_periodic
                0x0000915a       0x38 contiki-sky.a(uip-ds6-route.o)
                0x0000915a                uip_ds6_defrt_periodic
 .text.echo_reply_input
                0x00009192      0x110 contiki-sky.a(uip-icmp6.o)
 .text.echo_request_input
                0x000092a2      0x12c contiki-sky.a(uip-icmp6.o)
 .text.uip_icmp6_input
                0x000093ce       0x48 contiki-sky.a(uip-icmp6.o)
                0x000093ce                uip_icmp6_input
 .text.uip_icmp6_register_input_handler
                0x00009416        0xc contiki-sky.a(uip-icmp6.o)
                0x00009416                uip_icmp6_register_input_handler
 .text.uip_icmp6_error_output
                0x00009422      0x17e contiki-sky.a(uip-icmp6.o)
                0x00009422                uip_icmp6_error_output
 .text.uip_icmp6_send
                0x000095a0       0x94 contiki-sky.a(uip-icmp6.o)
                0x000095a0                uip_icmp6_send
 .text.uip_icmp6_init
                0x00009634       0x12 contiki-sky.a(uip-icmp6.o)
                0x00009634                uip_icmp6_init
 .text.uip_nd6_init
                0x00009646        0x2 contiki-sky.a(uip-nd6.o)
                0x00009646                uip_nd6_init
 .text.process_thread_simple_udp_process
                0x00009648       0xae contiki-sky.a(simple-udp.o)
 .text.simple_udp_sendto
                0x000096f6       0x2c contiki-sky.a(simple-udp.o)
                0x000096f6                simple_udp_sendto
 .text.simple_udp_register
                0x00009722       0x92 contiki-sky.a(simple-udp.o)
                0x00009722                simple_udp_register
 .text.start_periodic_tcp_timer
                0x000097b4       0x16 contiki-sky.a(tcpip.o)
 .text.tcpip_output
                0x000097ca       0x10 contiki-sky.a(tcpip.o)
                0x000097ca                tcpip_output
 .text.tcpip_set_outputfunc
                0x000097da        0x6 contiki-sky.a(tcpip.o)
                0x000097da                tcpip_set_outputfunc
 .text.udp_new  0x000097e0       0x1a contiki-sky.a(tcpip.o)
                0x000097e0                udp_new
 .text.tcpip_input
                0x000097fa       0x16 contiki-sky.a(tcpip.o)
                0x000097fa                tcpip_input
 .text.tcpip_ipv6_output
                0x00009810       0xd4 contiki-sky.a(tcpip.o)
                0x00009810                tcpip_ipv6_output
 .text.process_thread_tcpip_process
                0x000098e4      0x1d4 contiki-sky.a(tcpip.o)
 .text.tcpip_uipcall
                0x00009ab8       0x70 contiki-sky.a(tcpip.o)
                0x00009ab8                tcpip_uipcall
 .text.uip_debug_ipaddr_print
                0x00009b28       0x7e contiki-sky.a(uip-debug.o)
                0x00009b28                uip_debug_ipaddr_print
 .text.uip_udp_packet_send
                0x00009ba6       0x2e contiki-sky.a(uip-udp-packet.)
                0x00009ba6                uip_udp_packet_send
 .text.uip_udp_packet_sendto
                0x00009bd4       0x66 contiki-sky.a(uip-udp-packet.)
                0x00009bd4                uip_udp_packet_sendto
 .text.rpl_get_mode
                0x00009c3a        0x6 contiki-sky.a(rpl.o)
                0x00009c3a                rpl_get_mode
 .text.rpl_purge_routes
                0x00009c40       0x96 contiki-sky.a(rpl.o)
                0x00009c40                rpl_purge_routes
 .text.rpl_remove_routes
                0x00009cd6       0x22 contiki-sky.a(rpl.o)
                0x00009cd6                rpl_remove_routes
 .text.rpl_remove_routes_by_nexthop
                0x00009cf8       0x46 contiki-sky.a(rpl.o)
                0x00009cf8                rpl_remove_routes_by_nexthop
 .text.rpl_add_route
                0x00009d3e       0x48 contiki-sky.a(rpl.o)
                0x00009d3e                rpl_add_route
 .text.rpl_link_neighbor_callback
                0x00009d86       0x7c contiki-sky.a(rpl.o)
                0x00009d86                rpl_link_neighbor_callback
 .text.rpl_ipv6_neighbor_callback
                0x00009e02       0x1e contiki-sky.a(rpl.o)
                0x00009e02                rpl_ipv6_neighbor_callback
 .text.rpl_init
                0x00009e20       0x4a contiki-sky.a(rpl.o)
                0x00009e20                rpl_init
 .text.lollipop_greater_than
                0x00009e6a       0x3c contiki-sky.a(rpl-dag.o)
 .text.find_parent_any_dag_any_instance
                0x00009ea6       0x14 contiki-sky.a(rpl-dag.o)
 .text.rpl_set_preferred_parent
                0x00009eba       0x30 contiki-sky.a(rpl-dag.o)
 .text.set_ip_from_prefix
                0x00009eea       0x38 contiki-sky.a(rpl-dag.o)
 .text.check_prefix
                0x00009f22       0x80 contiki-sky.a(rpl-dag.o)
 .text.rpl_get_nbr
                0x00009fa2       0x1e contiki-sky.a(rpl-dag.o)
                0x00009fa2                rpl_get_nbr
 .text.rpl_dag_init
                0x00009fc0        0xe contiki-sky.a(rpl-dag.o)
                0x00009fc0                rpl_dag_init
 .text.rpl_get_parent
                0x00009fce        0xc contiki-sky.a(rpl-dag.o)
                0x00009fce                rpl_get_parent
 .text.rpl_get_parent_ipaddr
                0x00009fda       0x10 contiki-sky.a(rpl-dag.o)
                0x00009fda                rpl_get_parent_ipaddr
 .text.rpl_set_prefix
                0x00009fea       0x8e contiki-sky.a(rpl-dag.o)
                0x00009fea                rpl_set_prefix
 .text.rpl_set_default_route
                0x0000a078       0x64 contiki-sky.a(rpl-dag.o)
                0x0000a078                rpl_set_default_route
 .text.rpl_alloc_instance
                0x0000a0dc       0x34 contiki-sky.a(rpl-dag.o)
                0x0000a0dc                rpl_alloc_instance
 .text.rpl_add_parent
                0x0000a110       0x56 contiki-sky.a(rpl-dag.o)
                0x0000a110                rpl_add_parent
 .text.rpl_find_parent
                0x0000a166       0x1c contiki-sky.a(rpl-dag.o)
                0x0000a166                rpl_find_parent
 .text.rpl_find_parent_any_dag
                0x0000a182       0x24 contiki-sky.a(rpl-dag.o)
                0x0000a182                rpl_find_parent_any_dag
 .text.rpl_select_parent
                0x0000a1a6       0x7e contiki-sky.a(rpl-dag.o)
                0x0000a1a6                rpl_select_parent
 .text.rpl_select_dag
                0x0000a224      0x1ae contiki-sky.a(rpl-dag.o)
                0x0000a224                rpl_select_dag
 .text.rpl_nullify_parent
                0x0000a3d2       0x54 contiki-sky.a(rpl-dag.o)
                0x0000a3d2                rpl_nullify_parent
 .text.rpl_remove_parent
                0x0000a426       0x16 contiki-sky.a(rpl-dag.o)
                0x0000a426                rpl_remove_parent
 .text.nbr_callback
                0x0000a43c        0x6 contiki-sky.a(rpl-dag.o)
 .text.remove_parents.constprop.5
                0x0000a442       0x32 contiki-sky.a(rpl-dag.o)
 .text.rpl_move_parent
                0x0000a474       0x5a contiki-sky.a(rpl-dag.o)
                0x0000a474                rpl_move_parent
 .text.rpl_get_any_dag
                0x0000a4ce       0x16 contiki-sky.a(rpl-dag.o)
                0x0000a4ce                rpl_get_any_dag
 .text.rpl_get_instance
                0x0000a4e4       0x16 contiki-sky.a(rpl-dag.o)
                0x0000a4e4                rpl_get_instance
 .text.rpl_alloc_dag
                0x0000a4fa       0x64 contiki-sky.a(rpl-dag.o)
                0x0000a4fa                rpl_alloc_dag
 .text.rpl_repair_root
                0x0000a55e       0x4c contiki-sky.a(rpl-dag.o)
                0x0000a55e                rpl_repair_root
 .text.rpl_find_of
                0x0000a5aa       0x10 contiki-sky.a(rpl-dag.o)
                0x0000a5aa                rpl_find_of
 .text.rpl_join_instance
                0x0000a5ba      0x13c contiki-sky.a(rpl-dag.o)
                0x0000a5ba                rpl_join_instance
 .text.rpl_local_repair
                0x0000a6f6       0x80 contiki-sky.a(rpl-dag.o)
                0x0000a6f6                rpl_local_repair
 .text.rpl_process_parent_event
                0x0000a776       0x80 contiki-sky.a(rpl-dag.o)
                0x0000a776                rpl_process_parent_event
 .text.rpl_recalculate_ranks
                0x0000a7f6       0x46 contiki-sky.a(rpl-dag.o)
                0x0000a7f6                rpl_recalculate_ranks
 .text.rpl_add_dag
                0x0000a83c      0x112 contiki-sky.a(rpl-dag.o)
                0x0000a83c                rpl_add_dag
 .text.rpl_process_dio
                0x0000a94e      0x2f8 contiki-sky.a(rpl-dag.o)
                0x0000a94e                rpl_process_dio
 .text.rpl_lock_parent
                0x0000ac46        0xc contiki-sky.a(rpl-dag.o)
                0x0000ac46                rpl_lock_parent
 .text.rpl_verify_header
                0x0000ac52       0xb2 contiki-sky.a(rpl-ext-header.)
                0x0000ac52                rpl_verify_header
 .text.rpl_update_header_empty
                0x0000ad04      0x132 contiki-sky.a(rpl-ext-header.)
                0x0000ad04                rpl_update_header_empty
 .text.rpl_update_header_final
                0x0000ae36       0x90 contiki-sky.a(rpl-ext-header.)
                0x0000ae36                rpl_update_header_final
 .text.rpl_invert_header
                0x0000aec6       0x7c contiki-sky.a(rpl-ext-header.)
                0x0000aec6                rpl_invert_header
 .text.rpl_insert_header
                0x0000af42       0x12 contiki-sky.a(rpl-ext-header.)
                0x0000af42                rpl_insert_header
 .text.get32    0x0000af54       0x46 contiki-sky.a(rpl-icmp6.o)
 .text.set32    0x0000af9a       0x2a contiki-sky.a(rpl-icmp6.o)
 .text.get16    0x0000afc4        0xe contiki-sky.a(rpl-icmp6.o)
 .text.set16    0x0000afd2       0x10 contiki-sky.a(rpl-icmp6.o)
 .text.dao_ack_input
                0x0000afe2        0x6 contiki-sky.a(rpl-icmp6.o)
 .text.dio_input
                0x0000afe8      0x2d8 contiki-sky.a(rpl-icmp6.o)
 .text.dis_output
                0x0000b2c0       0x50 contiki-sky.a(rpl-icmp6.o)
                0x0000b2c0                dis_output
 .text.dio_output
                0x0000b310      0x268 contiki-sky.a(rpl-icmp6.o)
                0x0000b310                dio_output
 .text.dis_input
                0x0000b578       0x28 contiki-sky.a(rpl-icmp6.o)
 .text.dao_output_target
                0x0000b5a0       0xe4 contiki-sky.a(rpl-icmp6.o)
                0x0000b5a0                dao_output_target
 .text.dao_output
                0x0000b684       0x7e contiki-sky.a(rpl-icmp6.o)
                0x0000b684                dao_output
 .text.dao_ack_output
                0x0000b702       0x32 contiki-sky.a(rpl-icmp6.o)
                0x0000b702                dao_ack_output
 .text.dao_input
                0x0000b734      0x2ac contiki-sky.a(rpl-icmp6.o)
 .text.rpl_icmp6_register_handlers
                0x0000b9e0       0x22 contiki-sky.a(rpl-icmp6.o)
                0x0000b9e0                rpl_icmp6_register_handlers
 .text.reset    0x0000ba02        0x2 contiki-sky.a(rpl-mrhof.o)
 .text.update_metric_container
                0x0000ba04        0x6 contiki-sky.a(rpl-mrhof.o)
 .text.calculate_rank
                0x0000ba0a       0x42 contiki-sky.a(rpl-mrhof.o)
 .text.neighbor_link_callback
                0x0000ba4c       0x9c contiki-sky.a(rpl-mrhof.o)
 .text.best_dag
                0x0000bae8       0x2e contiki-sky.a(rpl-mrhof.o)
 .text.best_parent
                0x0000bb16       0x74 contiki-sky.a(rpl-mrhof.o)
 .text.new_dio_interval
                0x0000bb8a       0x92 contiki-sky.a(rpl-timers.o)
 .text.set_dao_lifetime_timer
                0x0000bc1c       0x66 contiki-sky.a(rpl-timers.o)
 .text.handle_periodic_timer
                0x0000bc82       0x2e contiki-sky.a(rpl-timers.o)
 .text.schedule_dao
                0x0000bcb0       0x82 contiki-sky.a(rpl-timers.o)
 .text.handle_dio_timer
                0x0000bd32       0x88 contiki-sky.a(rpl-timers.o)
 .text.handle_dao_timer
                0x0000bdba       0x64 contiki-sky.a(rpl-timers.o)
 .text.rpl_reset_periodic_timer
                0x0000be1e       0x54 contiki-sky.a(rpl-timers.o)
                0x0000be1e                rpl_reset_periodic_timer
 .text.rpl_reset_dio_timer
                0x0000be72       0x18 contiki-sky.a(rpl-timers.o)
                0x0000be72                rpl_reset_dio_timer
 .text.rpl_schedule_dao
                0x0000be8a        0xc contiki-sky.a(rpl-timers.o)
                0x0000be8a                rpl_schedule_dao
 .text.rpl_schedule_probing
                0x0000be96       0x3c contiki-sky.a(rpl-timers.o)
                0x0000be96                rpl_schedule_probing
 .text.handle_probing_timer
                0x0000bed2      0x12a contiki-sky.a(rpl-timers.o)
 .text.input_packet
                0x0000bffc        0x6 contiki-sky.a(csma.o)
 .text.on       0x0000c002        0x6 contiki-sky.a(csma.o)
 .text.off      0x0000c008        0x6 contiki-sky.a(csma.o)
 .text.channel_check_interval
                0x0000c00e       0x10 contiki-sky.a(csma.o)
 .text.transmit_packet_list
                0x0000c01e       0x24 contiki-sky.a(csma.o)
 .text.init     0x0000c042       0x1a contiki-sky.a(csma.o)
 .text.send_packet
                0x0000c05c      0x17a contiki-sky.a(csma.o)
 .text.free_packet
                0x0000c1d6       0x9c contiki-sky.a(csma.o)
 .text.packet_sent
                0x0000c272      0x132 contiki-sky.a(csma.o)
 .text.create_frame.isra.0
                0x0000c3a4      0x108 contiki-sky.a(framer-802154.o)
 .text.create   0x0000c4ac        0x8 contiki-sky.a(framer-802154.o)
 .text.hdr_length
                0x0000c4b4        0x8 contiki-sky.a(framer-802154.o)
 .text.parse    0x0000c4bc       0xa2 contiki-sky.a(framer-802154.o)
 .text.framer_canonical_create_and_secure
                0x0000c55e       0x20 contiki-sky.a(framer.o)
                0x0000c55e                framer_canonical_create_and_secure
 .text.mac_call_sent_callback
                0x0000c57e       0x14 contiki-sky.a(mac.o)
                0x0000c57e                mac_call_sent_callback
 .text.linkaddr_copy
                0x0000c592        0x8 contiki-sky.a(linkaddr.o)
                0x0000c592                linkaddr_copy
 .text.linkaddr_cmp
                0x0000c59a       0x12 contiki-sky.a(linkaddr.o)
                0x0000c59a                linkaddr_cmp
 .text.linkaddr_set_node_addr
                0x0000c5ac        0xc contiki-sky.a(linkaddr.o)
                0x0000c5ac                linkaddr_set_node_addr
 .text.item_from_index
                0x0000c5b8       0x2a contiki-sky.a(nbr-table.o)
 .text.index_from_key
                0x0000c5e2       0x26 contiki-sky.a(nbr-table.o)
 .text.index_from_item
                0x0000c608       0x1e contiki-sky.a(nbr-table.o)
 .text.nbr_set_bit
                0x0000c626       0x58 contiki-sky.a(nbr-table.o)
 .text.index_from_lladdr
                0x0000c67e       0x42 contiki-sky.a(nbr-table.o)
 .text.nbr_get_bit.constprop.0
                0x0000c6c0       0x2e contiki-sky.a(nbr-table.o)
 .text.nbr_table_register
                0x0000c6ee       0x26 contiki-sky.a(nbr-table.o)
                0x0000c6ee                nbr_table_register
 .text.nbr_table_next
                0x0000c714       0x54 contiki-sky.a(nbr-table.o)
                0x0000c714                nbr_table_next
 .text.nbr_table_head
                0x0000c768       0x3a contiki-sky.a(nbr-table.o)
                0x0000c768                nbr_table_head
 .text.nbr_table_add_lladdr
                0x0000c7a2      0x128 contiki-sky.a(nbr-table.o)
                0x0000c7a2                nbr_table_add_lladdr
 .text.nbr_table_get_from_lladdr
                0x0000c8ca       0x2c contiki-sky.a(nbr-table.o)
                0x0000c8ca                nbr_table_get_from_lladdr
 .text.nbr_table_remove
                0x0000c8f6       0x32 contiki-sky.a(nbr-table.o)
                0x0000c8f6                nbr_table_remove
 .text.nbr_table_lock
                0x0000c928       0x10 contiki-sky.a(nbr-table.o)
                0x0000c928                nbr_table_lock
 .text.nbr_table_unlock
                0x0000c938       0x10 contiki-sky.a(nbr-table.o)
                0x0000c938                nbr_table_unlock
 .text.nbr_table_get_lladdr
                0x0000c948       0x22 contiki-sky.a(nbr-table.o)
                0x0000c948                nbr_table_get_lladdr
 .text.packetbuf_compact
                0x0000c96a       0x2e contiki-sky.a(packetbuf.o)
                0x0000c96a                packetbuf_compact
 .text.packetbuf_copyto
                0x0000c998       0x52 contiki-sky.a(packetbuf.o)
                0x0000c998                packetbuf_copyto
 .text.packetbuf_hdrreduce
                0x0000c9ea       0x1a contiki-sky.a(packetbuf.o)
                0x0000c9ea                packetbuf_hdrreduce
 .text.packetbuf_set_datalen
                0x0000ca04        0x6 contiki-sky.a(packetbuf.o)
                0x0000ca04                packetbuf_set_datalen
 .text.packetbuf_dataptr
                0x0000ca0a        0xe contiki-sky.a(packetbuf.o)
                0x0000ca0a                packetbuf_dataptr
 .text.packetbuf_hdrptr
                0x0000ca18        0xa contiki-sky.a(packetbuf.o)
                0x0000ca18                packetbuf_hdrptr
 .text.packetbuf_datalen
                0x0000ca22        0x6 contiki-sky.a(packetbuf.o)
                0x0000ca22                packetbuf_datalen
 .text.packetbuf_hdrlen
                0x0000ca28       0x10 contiki-sky.a(packetbuf.o)
                0x0000ca28                packetbuf_hdrlen
 .text.packetbuf_totlen
                0x0000ca38        0xc contiki-sky.a(packetbuf.o)
                0x0000ca38                packetbuf_totlen
 .text.packetbuf_hdralloc
                0x0000ca44       0x2e contiki-sky.a(packetbuf.o)
                0x0000ca44                packetbuf_hdralloc
 .text.packetbuf_attr_clear
                0x0000ca72       0x28 contiki-sky.a(packetbuf.o)
                0x0000ca72                packetbuf_attr_clear
 .text.packetbuf_clear
                0x0000ca9a       0x1a contiki-sky.a(packetbuf.o)
                0x0000ca9a                packetbuf_clear
 .text.packetbuf_copyfrom
                0x0000cab4       0x2e contiki-sky.a(packetbuf.o)
                0x0000cab4                packetbuf_copyfrom
 .text.packetbuf_attr_copyto
                0x0000cae2       0x22 contiki-sky.a(packetbuf.o)
                0x0000cae2                packetbuf_attr_copyto
 .text.packetbuf_attr_copyfrom
                0x0000cb04       0x24 contiki-sky.a(packetbuf.o)
                0x0000cb04                packetbuf_attr_copyfrom
 .text.packetbuf_holds_broadcast
                0x0000cb28        0xe contiki-sky.a(packetbuf.o)
                0x0000cb28                packetbuf_holds_broadcast
 .text.queuebuf_init
                0x0000cb36       0x12 contiki-sky.a(queuebuf.o)
                0x0000cb36                queuebuf_init
 .text.queuebuf_numfree
                0x0000cb48        0xa contiki-sky.a(queuebuf.o)
                0x0000cb48                queuebuf_numfree
 .text.queuebuf_new_from_packetbuf
                0x0000cb52       0x52 contiki-sky.a(queuebuf.o)
                0x0000cb52                queuebuf_new_from_packetbuf
 .text.queuebuf_update_attr_from_packetbuf
                0x0000cba4       0x12 contiki-sky.a(queuebuf.o)
                0x0000cba4                queuebuf_update_attr_from_packetbuf
 .text.queuebuf_update_from_packetbuf
                0x0000cbb6       0x22 contiki-sky.a(queuebuf.o)
                0x0000cbb6                queuebuf_update_from_packetbuf
 .text.queuebuf_free
                0x0000cbd8       0x2a contiki-sky.a(queuebuf.o)
                0x0000cbd8                queuebuf_free
 .text.queuebuf_to_packetbuf
                0x0000cc02       0x32 contiki-sky.a(queuebuf.o)
                0x0000cc02                queuebuf_to_packetbuf
 .text.queuebuf_attr
                0x0000cc34        0xe contiki-sky.a(queuebuf.o)
                0x0000cc34                queuebuf_attr
 .text.duty_cycle
                0x0000cc42        0x6 contiki-sky.a(contikimac.o)
 .text.init     0x0000cc48       0x2a contiki-sky.a(contikimac.o)
 .text.on       0x0000cc72       0x1a contiki-sky.a(contikimac.o)
 .text.off      0x0000cc8c       0x22 contiki-sky.a(contikimac.o)
 .text.recv_burst_off
                0x0000ccae        0xa contiki-sky.a(contikimac.o)
 .text.turn_off
                0x0000ccb8       0x20 contiki-sky.a(contikimac.o)
 .text.turn_on  0x0000ccd8       0x30 contiki-sky.a(contikimac.o)
 .text.schedule_powercycle_fixed.part.4
                0x0000cd08       0x34 contiki-sky.a(contikimac.o)
 .text.powercycle_turn_radio_off
                0x0000cd3c       0x30 contiki-sky.a(contikimac.o)
 .text.input_packet
                0x0000cd6c       0xb6 contiki-sky.a(contikimac.o)
 .text.send_packet.isra.7
                0x0000ce22      0x20c contiki-sky.a(contikimac.o)
 .text.qsend_list
                0x0000d02e       0xc4 contiki-sky.a(contikimac.o)
 .text.qsend_packet
                0x0000d0f2       0x28 contiki-sky.a(contikimac.o)
 .text.powercycle
                0x0000d11a      0x1d6 contiki-sky.a(contikimac.o)
 .text.bootstrap
                0x0000d2f0        0x4 contiki-sky.a(nullsec.o)
 .text.send     0x0000d2f4        0xa contiki-sky.a(nullsec.o)
 .text.on_frame_created
                0x0000d2fe        0x4 contiki-sky.a(nullsec.o)
 .text.input    0x0000d302        0x6 contiki-sky.a(nullsec.o)
 .text.get_overhead
                0x0000d308        0x4 contiki-sky.a(nullsec.o)
 .text.spi_init
                0x0000d30c       0x30 contiki-sky.a(spi.o)
                0x0000d30c                spi_init
 .text.compower_accumulate
                0x0000d33c       0x72 contiki-sky.a(compower.o)
                0x0000d33c                compower_accumulate
 .text.compower_clear
                0x0000d3ae       0x12 contiki-sky.a(compower.o)
                0x0000d3ae                compower_clear
 .text.compower_attrconv
                0x0000d3c0       0x10 contiki-sky.a(compower.o)
                0x0000d3c0                compower_attrconv
 .text.stimer_set
                0x0000d3d0       0x1c contiki-sky.a(stimer.o)
                0x0000d3d0                stimer_set
 .text.stimer_expired
                0x0000d3ec       0x30 contiki-sky.a(stimer.o)
                0x0000d3ec                stimer_expired
 .text.memb_init
                0x0000d41c       0x36 contiki-sky.a(memb.o)
                0x0000d41c                memb_init
 .text.memb_alloc
                0x0000d452       0x3e contiki-sky.a(memb.o)
                0x0000d452                memb_alloc
 .text.memb_free
                0x0000d490       0x3a contiki-sky.a(memb.o)
                0x0000d490                memb_free
 .text.memb_inmemb
                0x0000d4ca       0x2a contiki-sky.a(memb.o)
                0x0000d4ca                memb_inmemb
 .text.memb_numfree
                0x0000d4f4       0x26 contiki-sky.a(memb.o)
                0x0000d4f4                memb_numfree
 .text.field_len
                0x0000d51a       0x90 contiki-sky.a(frame802154.o)
 .text.frame802154_hdrlen
                0x0000d5aa       0x2e contiki-sky.a(frame802154.o)
                0x0000d5aa                frame802154_hdrlen
 .text.frame802154_create
                0x0000d5d8      0x146 contiki-sky.a(frame802154.o)
                0x0000d5d8                frame802154_create
 .text.frame802154_parse
                0x0000d71e      0x1ba contiki-sky.a(frame802154.o)
                0x0000d71e                frame802154_parse
 .text.mac_sequence_is_duplicate
                0x0000d8d8       0x44 contiki-sky.a(mac-sequence.o)
                0x0000d8d8                mac_sequence_is_duplicate
 .text.mac_sequence_register_seqno
                0x0000d91c       0x72 contiki-sky.a(mac-sequence.o)
                0x0000d91c                mac_sequence_register_seqno
 .text.libgcc   0x0000d98e       0x2c /usr/local/msp430/bin/../lib/gcc/msp430/4.7.0/mmpy-16/libgcc.a(_mulsi3.o)
                0x0000d98e                __mulsi3
 .text.libgcc   0x0000d9ba       0x22 /usr/local/msp430/bin/../lib/gcc/msp430/4.7.0/mmpy-16/libgcc.a(_udivmod16.o)
                0x0000d9ba                __udivhi3
                0x0000d9ba                __ext_udivmod16
                0x0000d9d4                __umodhi3
 .text.libgcc   0x0000d9dc       0x3a /usr/local/msp430/bin/../lib/gcc/msp430/4.7.0/mmpy-16/libgcc.a(_divmod16.o)
                0x0000d9dc                __ext_divmod16
                0x0000d9dc                __divhi3
                0x0000da0e                __modhi3
 .text.libgcc   0x0000da16       0x40 /usr/local/msp430/bin/../lib/gcc/msp430/4.7.0/mmpy-16/libgcc.a(_udivmod32.o)
                0x0000da16                __udivsi3
                0x0000da16                __ext_udivmod32
                0x0000da4c                __umodsi3
 .text.printf   0x0000da56       0x10 /usr/local/msp430/bin/../lib/gcc/msp430/4.7.0/../../../../msp430/lib/mmpy-16/libc.a(printf.o)
                0x0000da56                printf
 .text.print_field
                0x0000da66      0x194 /usr/local/msp430/bin/../lib/gcc/msp430/4.7.0/../../../../msp430/lib/mmpy-16/libc.a(vuprintf.o)
 .text.vuprintf
                0x0000dbfa      0x63c /usr/local/msp430/bin/../lib/gcc/msp430/4.7.0/../../../../msp430/lib/mmpy-16/libc.a(vuprintf.o)
                0x0000dbfa                vuprintf
 .text.puts     0x0000e236       0x2c /usr/local/msp430/bin/../lib/gcc/msp430/4.7.0/../../../../msp430/lib/mmpy-16/libc.a(puts.o)
                0x0000e236                puts
 .text.rand     0x0000e262       0x26 /usr/local/msp430/bin/../lib/gcc/msp430/4.7.0/../../../../msp430/lib/mmpy-16/libc.a(rand.o)
                0x0000e262                rand
 .text.srand    0x0000e288        0xa /usr/local/msp430/bin/../lib/gcc/msp430/4.7.0/../../../../msp430/lib/mmpy-16/libc.a(rand.o)
                0x0000e288                srand
 .text.memcmp   0x0000e292       0x30 /usr/local/msp430/bin/../lib/gcc/msp430/4.7.0/../../../../msp430/lib/mmpy-16/libc.a(memcmp.o)
                0x0000e292                memcmp
 .text.memcpy   0x0000e2c2       0xfa /usr/local/msp430/bin/../lib/gcc/msp430/4.7.0/../../../../msp430/lib/mmpy-16/libc.a(memcpy.o)
                0x0000e2c2                memcpy
 .text.memmove  0x0000e3bc       0xfa /usr/local/msp430/bin/../lib/gcc/msp430/4.7.0/../../../../msp430/lib/mmpy-16/libc.a(memmove.o)
                0x0000e3bc                memmove
 .text.memset   0x0000e4b6       0x6a /usr/local/msp430/bin/../lib/gcc/msp430/4.7.0/../../../../msp430/lib/mmpy-16/libc.a(memset.o)
                0x0000e4b6                memset
 .text.libgcc   0x0000e520       0xf0 /usr/local/msp430/bin/../lib/gcc/msp430/4.7.0/mmpy-16/libgcc.a(_udivmod64.o)
                0x0000e520                __xabi_udivmod64
                0x0000e57e                __udivdi3
                0x0000e5a4                __umoddi3
                0x0000e5d2                __udivmoddi4
 .text.crt0     0x0000e610        0x2 /usr/local/msp430/bin/../lib/gcc/msp430/4.7.0/mmpy-16/libcrt0.a(_unexpected_.o)
                0x0000e610                _unexpected_
 *(.near.text .near.text.*)

.rodata         0x0000e614      0x30b
                0x0000e614                . = ALIGN (0x2)
 *(.rodata .rodata.* .gnu.linkonce.r.*)
 .rodata        0x0000e614       0x70 broadcast-example.co
                0x0000e662                autostart_processes
 .rodata        0x0000e684      0x120 obj_sky/contiki-sky-main.o
 .rodata        0x0000e7a4       0x10 contiki-sky.a(button-sensor.o)
                0x0000e7ac                button_sensor
 .rodata        0x0000e7b4        0x8 contiki-sky.a(sensors.o)
 .rodata.get_value
                0x0000e7bc       0x1c contiki-sky.a(cc2420.o)
 .rodata        0x0000e7d8       0x3e contiki-sky.a(cc2420.o)
                0x0000e7d8                cc2420_aes_128_driver
                0x0000e7dc                cc2420_driver
 .rodata        0x0000e816        0xf contiki-sky.a(ctimer.o)
 .rodata        0x0000e825        0xc contiki-sky.a(etimer.o)
 *fill*         0x0000e831        0x1 00
 .rodata        0x0000e832       0x24 contiki-sky.a(sicslowpan.o)
                0x0000e83e                sicslowpan_driver
                0x0000e844                llprefix
                0x0000e846                unc_mxconf
                0x0000e84a                unc_ctxconf
                0x0000e84e                unc_llconf
 *fill*         0x0000e856        0x2 00
 .rodata.uip_process
                0x0000e858       0x20 contiki-sky.a(uip6.o)
 .rodata        0x0000e878       0x13 contiki-sky.a(simple-udp.o)
 .rodata        0x0000e88b        0xd contiki-sky.a(tcpip.o)
 .rodata        0x0000e898       0x29 contiki-sky.a(uip-debug.o)
 *fill*         0x0000e8c1        0x1 00
 .rodata        0x0000e8c2       0x14 contiki-sky.a(csma.o)
                0x0000e8c8                csma_driver
 .rodata        0x0000e8d6        0x8 contiki-sky.a(framer-802154.o)
                0x0000e8d6                framer_802154
 .rodata        0x0000e8de        0x8 contiki-sky.a(linkaddr.o)
                0x0000e8de                linkaddr_null
 .rodata        0x0000e8e6       0x1c contiki-sky.a(contikimac.o)
                0x0000e8f2                contikimac_driver
 .rodata        0x0000e902       0x14 contiki-sky.a(nullsec.o)
                0x0000e90a                nullsec_driver
 .rodata        0x0000e916        0x2 contiki-sky.a(frame802154.o)
 .rodata.vuprintf
                0x0000e918        0x7 /usr/local/msp430/bin/../lib/gcc/msp430/4.7.0/../../../../msp430/lib/mmpy-16/libc.a(vuprintf.o)
 *(.near.rodata .near.rodata.*)
                0x0000e920                . = ALIGN (0x2)
                0x0000e920                _etext = .

.data           0x00001100       0xe8 load address 0x0000e920
                0x00001100                . = ALIGN (0x2)
                0x00001100                __data_start = .
 *(.data .data.* .gnu.linkonce.d.*)
 .data          0x00001100        0xa broadcast-example.co
                0x00001100                broadcast_example_process
 .data          0x0000110a        0x4 contiki-sky.a(contiki-sky-pla)
                0x0000110a                sensors
 .data          0x0000110e        0xa contiki-sky.a(sensors.o)
                0x0000110e                sensors_process
 .data          0x00001118        0xa contiki-sky.a(cc2420.o)
                0x00001118                cc2420_process
 .data          0x00001122        0x2 contiki-sky.a(msp430.o)
 .data          0x00001124        0xa contiki-sky.a(ctimer.o)
                0x00001124                ctimer_process
 .data          0x0000112e        0xa contiki-sky.a(etimer.o)
                0x0000112e                etimer_process
 .data          0x00001138        0xa contiki-sky.a(uip-ds6-nbr.o)
                0x00001138                ds6_neighbors
 .data          0x00001142       0x20 contiki-sky.a(uip-ds6-route.o)
 .data          0x00001162        0xc contiki-sky.a(uip-icmp6.o)
 .data          0x0000116e        0xa contiki-sky.a(simple-udp.o)
                0x0000116e                simple_udp_process
 .data          0x00001178        0xa contiki-sky.a(tcpip.o)
                0x00001178                tcpip_process
 .data          0x00001182        0xa contiki-sky.a(rpl-dag.o)
                0x00001182                rpl_parents
 .data          0x0000118c       0x1a contiki-sky.a(rpl-icmp6.o)
 .data          0x000011a6        0xe contiki-sky.a(rpl-mrhof.o)
                0x000011a6                rpl_mrhof
 .data          0x000011b4       0x18 contiki-sky.a(csma.o)
 .data          0x000011cc        0x8 contiki-sky.a(nbr-table.o)
 .data          0x000011d4       0x10 contiki-sky.a(queuebuf.o)
 .data.next     0x000011e4        0x4 /usr/local/msp430/bin/../lib/gcc/msp430/4.7.0/../../../../msp430/lib/mmpy-16/libc.a(rand.o)
 *(.near.data .near.data.*)
                0x000011e8                . = ALIGN (0x2)
                0x000011e8                _edata = .
                0x0000e920                __data_load_start = LOADADDR (.data)
                0x000000e8                __data_size = SIZEOF (.data)

.bss            0x000011e8     0x1a44 load address 0x0000ea08
                0x000011e8                __bss_start = .
 *(.bss .bss.*)
 .bss           0x000011e8       0x34 broadcast-example.co
 .bss           0x0000121c        0xc obj_sky/contiki-sky-main.o
 .bss           0x00001228        0x8 contiki-sky.a(button-sensor.o)
 .bss           0x00001230        0x2 contiki-sky.a(node-id.o)
                0x00001230                node_id
 .bss           0x00001232        0x6 contiki-sky.a(sensors.o)
 .bss           0x00001238        0x8 contiki-sky.a(cc2420.o)
 .bss           0x00001240       0x9a contiki-sky.a(uart1.o)
 .bss           0x000012da        0xa contiki-sky.a(clock.o)
 .bss           0x000012e4        0x1 contiki-sky.a(leds.o)
 *fill*         0x000012e5        0x1 00
 .bss           0x000012e6        0x2 contiki-sky.a(watchdog.o)
 .bss           0x000012e8        0x4 contiki-sky.a(ctimer.o)
 .bss           0x000012ec        0x6 contiki-sky.a(etimer.o)
 .bss           0x000012f2       0x42 contiki-sky.a(process.o)
                0x000012f2                process_current
                0x000012f4                process_list
 .bss           0x00001334        0x2 contiki-sky.a(rtimer.o)
 .bss           0x00001336      0x124 contiki-sky.a(sicslowpan.o)
 .bss           0x0000145a        0xe contiki-sky.a(uip6.o)
                0x0000145a                uip_ext_opt_offset
                0x0000145b                uip_ext_len
                0x0000145c                uip_ext_bitmap
 .bss           0x00001468       0x18 contiki-sky.a(uip-ds6.o)
 .bss           0x00001480      0x2f8 contiki-sky.a(uip-ds6-nbr.o)
 .bss           0x00001778      0x362 contiki-sky.a(uip-ds6-route.o)
 .bss           0x00001ada       0x14 contiki-sky.a(uip-icmp6.o)
 .bss           0x00001aee       0xf1 contiki-sky.a(simple-udp.o)
 *fill*         0x00001bdf        0x1 00
 .bss           0x00001be0       0x36 contiki-sky.a(tcpip.o)
 .bss           0x00001c16        0x2 contiki-sky.a(rpl.o)
 .bss           0x00001c18       0xf0 contiki-sky.a(rpl-dag.o)
 .bss           0x00001d08       0x18 contiki-sky.a(rpl-timers.o)
 .bss           0x00001d20       0xc4 contiki-sky.a(csma.o)
 .bss           0x00001de4        0x2 contiki-sky.a(framer-802154.o)
 .bss           0x00001de6      0x118 contiki-sky.a(nbr-table.o)
 .bss           0x00001efe       0xb8 contiki-sky.a(packetbuf.o)
 .bss           0x00001fb6      0x5a0 contiki-sky.a(queuebuf.o)
 .bss           0x00002556       0x32 contiki-sky.a(contikimac.o)
 .bss           0x00002588        0x8 contiki-sky.a(compower.o)
 .bss           0x00002590       0xa0 contiki-sky.a(mac-sequence.o)
 *(.near.bss .near.bss.*)
 *(COMMON)
 COMMON         0x00002630        0x2 contiki-sky.a(contiki-sky-pla)
                0x00002630                sensors_flags
 COMMON         0x00002632        0x8 contiki-sky.a(ds2411.o)
                0x00002632                ds2411_id
 COMMON         0x0000263a        0x1 contiki-sky.a(sensors.o)
                0x0000263a                sensors_event
 *fill*         0x0000263b        0x1 00
 COMMON         0x0000263c       0x10 contiki-sky.a(cc2420.o)
                0x0000263c                cc2420_last_rssi
                0x0000263e                cc2420_sfd_start_time
                0x00002640                cc2420_time_of_departure
                0x00002642                cc2420_time_of_arrival
                0x00002644                cc2420_last_correlation
                0x00002646                cc2420_authority_level_of_sender
                0x00002648                cc2420_sfd_counter
                0x0000264a                cc2420_sfd_end_time
 COMMON         0x0000264c        0x2 contiki-sky.a(msp430.o)
                0x0000264c                msp430_dco_required
 COMMON         0x0000264e       0x56 contiki-sky.a(energest.o)
                0x0000264e                energest_total_time
                0x0000267e                energest_total_count
                0x00002680                energest_current_mode
                0x0000268c                energest_current_time
 COMMON         0x000026a4        0x1 contiki-sky.a(process.o)
                0x000026a4                process_maxevents
 *fill*         0x000026a5        0x1 00
 COMMON         0x000026a6        0x8 contiki-sky.a(sicslowpan.o)
                0x000026a6                frag_sender
 COMMON         0x000026ae      0x304 contiki-sky.a(uip6.o)
                0x000026ae                uip_len
                0x000026b0                uip_sappdata
                0x000026b2                uip_acc32
                0x000026b6                uip_lladdr
                0x000026be                uip_aligned_buf
                0x000027ae                uip_flags
                0x000027b0                uip_next_hdr
                0x000027b2                uip_udp_conn
                0x000027b4                uip_appdata
                0x000027b6                uip_conn
                0x000027b8                uip_conns
                0x00002868                uip_listenports
                0x00002878                uip_slen
                0x0000287a                uip_udp_conns
 COMMON         0x000029b2      0x15c contiki-sky.a(uip-ds6.o)
                0x000029b2                uip_ds6_timer_ra
                0x000029ba                uip_ds6_if
                0x00002aa6                uip_ds6_netif_addr_list_offset
                0x00002aa7                uip_ds6_addr_size
                0x00002aa8                uip_ds6_prefix_list
                0x00002b02                uip_ds6_timer_periodic
 COMMON         0x00002b0e        0x1 contiki-sky.a(tcpip.o)
                0x00002b0e                tcpip_event
 *fill*         0x00002b0f        0x1 00
 COMMON         0x00002b10       0xde contiki-sky.a(rpl-dag.o)
                0x00002b10                default_instance
                0x00002b12                instance_table
 COMMON         0x00002bee        0x8 contiki-sky.a(linkaddr.o)
                0x00002bee                linkaddr_node_addr
 COMMON         0x00002bf6       0x2e contiki-sky.a(packetbuf.o)
                0x00002bf6                packetbuf_addrs
                0x00002c06                packetbuf_attrs
 COMMON         0x00002c24        0x8 contiki-sky.a(compower.o)
                0x00002c24                compower_idle_activity
                0x00002c2c                . = ALIGN (0x2)
                0x00002c2c                __bss_end = .
                0x00001a44                __bss_size = SIZEOF (.bss)

.noinit         0x00002c2c        0x2 load address 0x0000ea08
                0x00002c2c                . = ALIGN (0x2)
                0x00002c2c                __noinit_start = .
 *(.noinit .noinit.*)
 .noinit.crt0   0x00002c2c        0x2 /usr/local/msp430/bin/../lib/gcc/msp430/4.7.0/mmpy-16/libcrt0.a(__watchdog_support.o)
                0x00002c2c                __wdt_clear_value
                0x00002c2e                . = ALIGN (0x2)
                0x00002c2e                __noinit_end = .
                0x00002c2e                . = ALIGN (0x2)
                0x00002c2e                _end = .

.infomem        0x00001000        0x0
                0x00001000                . = ALIGN (0x2)
 *(.infomem .infomem.*)

.infomemnobits  0x00001000        0x0
                0x00001000                . = ALIGN (0x2)
 *(.infomemnobits .infomemnobits.*)

.infoa          0x00001080        0x0
                0x00001080                . = ALIGN (0x2)
 *(.infoa .infoa.*)

.infob          0x00001000        0x0
                0x00001000                . = ALIGN (0x2)
 *(.infob .infob.*)

.infoc          0x00000000        0x0
                0x00000000                . = ALIGN (0x2)
 *(.infoc .infoc.*)

.infod          0x00000000        0x0
                0x00000000                . = ALIGN (0x2)
 *(.infod .infod.*)

.vectors        0x0000ffe0       0x20
                0x0000ffe0                __vectors_start = .
 *(.vectors*)
 .vectors       0x0000ffe0       0x20 /usr/local/msp430/bin/../lib/gcc/msp430/4.7.0/mmpy-16/crt0ivtbl16.o
                0x0000ffe0                __ivtbl_16
                0x00010000                _vectors_end = .

.fartext        0x00000000        0x0
                0x00000000                . = ALIGN (0x2)
 *(.fartext .fartext.*)

.far.text       0x00000000        0x0
                0x00000000                . = ALIGN (0x2)
 *(.far.text .far.text.*)

.far.rodata     0x00000000        0x0
                0x00000000                . = ALIGN (0x2)
 *(.far.rodata .far.rodata.*)
                0x00000000                . = ALIGN (0x2)
                0x00000000                _efartext = .

.far.data       0x00000000        0x0
                0x00000000                . = ALIGN (0x2)
                0x00000000                __far_data_start = .
 *(.far.data .far.data.*)
                0x00000000                . = ALIGN (0x2)
                0x00000000                _efardata = .
                0x00000000                __far_data_load_start = LOADADDR (.far.data)
                0x00000000                __far_data_size = SIZEOF (.far.data)

.far.bss        0x00000000        0x0
                0x00000000                . = ALIGN (0x2)
                0x00000000                __far_bss_start = .
 *(.far.bss .far.bss.*)
                0x00000000                . = ALIGN (0x2)
                0x00000000                __far_bss_end = .
                0x00000000                __far_bss_size = SIZEOF (.far.bss)
                0x00000000                . = ALIGN (0x2)
                0x00000000                _far_end = .

.profiler
 *(.profiler)

.stab           0x00000000    0x27f84
 *(.stab)
 .stab          0x00000000     0x1050 broadcast-example.co
 .stab          0x00001050     0x1668 obj_sky/contiki-sky-main.o
                               0x1b0c (size before relaxing)
 .stab          0x000026b8      0x258 contiki-sky.a(contiki-sky-pla)
                                0x5ac (size before relaxing)
 .stab          0x00002910      0x468 contiki-sky.a(button-sensor.o)
                                0x7d4 (size before relaxing)
 .stab          0x00002d78      0x618 contiki-sky.a(ds2411.o)
                                0xb34 (size before relaxing)
 .stab          0x00003390      0x9d8 contiki-sky.a(xmem.o)
                                0xf00 (size before relaxing)
 .stab          0x00003d68      0x2b8 contiki-sky.a(node-id.o)
                                0x4e0 (size before relaxing)
 .stab          0x00004020      0x69c contiki-sky.a(sensors.o)
                                0xbb8 (size before relaxing)
 .stab          0x000046bc     0x2568 contiki-sky.a(cc2420.o)
                               0x2c28 (size before relaxing)
 .stab          0x00006c24      0x7d4 contiki-sky.a(cc2420-arch.o)
                               0x171c (size before relaxing)
 .stab          0x000073f8      0x600 contiki-sky.a(uart1.o)
                                0x954 (size before relaxing)
 .stab          0x000079f8      0x27c contiki-sky.a(uart1-putchar.o)
                                0x7bc (size before relaxing)
 .stab          0x00007c74      0x72c contiki-sky.a(msp430.o)
                                0xa80 (size before relaxing)
 .stab          0x000083a0      0x930 contiki-sky.a(clock.o)
                                0xc84 (size before relaxing)
 .stab          0x00008cd0      0x5a0 contiki-sky.a(leds.o)
                                0x7ec (size before relaxing)
 .stab          0x00009270      0x378 contiki-sky.a(leds-arch.o)
                                0x6cc (size before relaxing)
 .stab          0x000095e8      0x3cc contiki-sky.a(watchdog.o)
                                0x720 (size before relaxing)
 .stab          0x000099b4      0x3b4 contiki-sky.a(rtimer-arch.o)
                                0x708 (size before relaxing)
 .stab          0x00009d68      0x294 contiki-sky.a(autostart.o)
                                0x534 (size before relaxing)
 .stab          0x00009ffc      0x78c contiki-sky.a(ctimer.o)
                                0xaf8 (size before relaxing)
 .stab          0x0000a788      0x474 contiki-sky.a(energest.o)
                                0x6fc (size before relaxing)
 .stab          0x0000abfc      0x9fc contiki-sky.a(etimer.o)
                                0xccc (size before relaxing)
 .stab          0x0000b5f8      0xb70 contiki-sky.a(process.o)
                               0x1008 (size before relaxing)
 .stab          0x0000c168      0x3cc contiki-sky.a(rtimer.o)
                                0x6b4 (size before relaxing)
 .stab          0x0000c534      0x348 contiki-sky.a(timer.o)
                                0x588 (size before relaxing)
 .stab          0x0000c87c      0x7bc contiki-sky.a(list.o)
                                0x7c8 (size before relaxing)
 .stab          0x0000d038      0x240 contiki-sky.a(random.o)
                                0x618 (size before relaxing)
 .stab          0x0000d278     0x216c contiki-sky.a(sicslowpan.o)
                               0x30d8 (size before relaxing)
 .stab          0x0000f3e4     0x2ab4 contiki-sky.a(uip6.o)
                               0x366c (size before relaxing)
 .stab          0x00011e98     0x13bc contiki-sky.a(uip-ds6.o)
                               0x1f5c (size before relaxing)
 .stab          0x00013254      0xccc contiki-sky.a(uip-ds6-nbr.o)
                               0x1704 (size before relaxing)
 .stab          0x00013f20     0x1200 contiki-sky.a(uip-ds6-route.o)
                               0x1d88 (size before relaxing)
 .stab          0x00015120      0xcd8 contiki-sky.a(uip-icmp6.o)
                               0x1950 (size before relaxing)
 .stab          0x00015df8      0x570 contiki-sky.a(uip-nd6.o)
                               0x114c (size before relaxing)
 .stab          0x00016368      0x8c4 contiki-sky.a(simple-udp.o)
                               0x19d4 (size before relaxing)
 .stab          0x00016c2c     0x126c contiki-sky.a(tcpip.o)
                               0x24b4 (size before relaxing)
 .stab          0x00017e98      0x450 contiki-sky.a(uip-debug.o)
                                0xbdc (size before relaxing)
 .stab          0x000182e8      0x438 contiki-sky.a(uip-udp-packet.)
                                0xbf4 (size before relaxing)
 .stab          0x00018720      0xb58 contiki-sky.a(rpl.o)
                               0x17ac (size before relaxing)
 .stab          0x00019278     0x2ebc contiki-sky.a(rpl-dag.o)
                               0x3bc4 (size before relaxing)
 .stab          0x0001c134      0xa50 contiki-sky.a(rpl-ext-header.)
                               0x180c (size before relaxing)
 .stab          0x0001cb84     0x1764 contiki-sky.a(rpl-icmp6.o)
                               0x2568 (size before relaxing)
 .stab          0x0001e2e8      0x894 contiki-sky.a(rpl-mrhof.o)
                               0x1584 (size before relaxing)
 .stab          0x0001eb7c      0xbac contiki-sky.a(rpl-timers.o)
                               0x189c (size before relaxing)
 .stab          0x0001f728     0x1038 contiki-sky.a(csma.o)
                               0x1578 (size before relaxing)
 .stab          0x00020760      0x924 contiki-sky.a(framer-802154.o)
                                0xf48 (size before relaxing)
 .stab          0x00021084      0x3fc contiki-sky.a(framer.o)
                                0xc54 (size before relaxing)
 .stab          0x00021480      0x1f8 contiki-sky.a(mac.o)
                                0x4ec (size before relaxing)
 .stab          0x00021678      0x2ac contiki-sky.a(linkaddr.o)
                                0x6a8 (size before relaxing)
 .stab          0x00021924      0xe58 contiki-sky.a(nbr-table.o)
                               0x1500 (size before relaxing)
 .stab          0x0002277c      0xd74 contiki-sky.a(packetbuf.o)
                               0x1e9c (size before relaxing)
 .stab          0x000234f0      0xa80 contiki-sky.a(queuebuf.o)
                               0x1b90 (size before relaxing)
 .stab          0x00023f70     0x1944 contiki-sky.a(contikimac.o)
                               0x23b8 (size before relaxing)
 .stab          0x000258b4      0x738 contiki-sky.a(nullsec.o)
                                0xd80 (size before relaxing)
 .stab          0x00025fec      0x1f8 contiki-sky.a(spi.o)
                                0x420 (size before relaxing)
 .stab          0x000261e4      0x4ec contiki-sky.a(compower.o)
                                0xcf0 (size before relaxing)
 .stab          0x000266d0      0x3b4 contiki-sky.a(stimer.o)
                                0x5f4 (size before relaxing)
 .stab          0x00026a84      0x5c4 contiki-sky.a(memb.o)
                                0xaf8 (size before relaxing)
 .stab          0x00027048      0x8f4 contiki-sky.a(frame802154.o)
                               0x10c8 (size before relaxing)
 .stab          0x0002793c      0x648 contiki-sky.a(mac-sequence.o)
                               0x1770 (size before relaxing)

.stabstr        0x00000000    0x1ba57
 *(.stabstr)
 .stabstr       0x00000000    0x1ba57 broadcast-example.co

.stab.excl
 *(.stab.excl)

.stab.exclstr
 *(.stab.exclstr)

.stab.index
 *(.stab.index)

.stab.indexstr
 *(.stab.indexstr)

.comment        0x00000000       0x30
 *(.comment)
 .comment       0x00000000       0x30 broadcast-example.co
                                 0x31 (size before relaxing)
 .comment       0x00000000       0x31 obj_sky/contiki-sky-main.o
 .comment       0x00000000       0x31 contiki-sky.a(contiki-sky-pla)
 .comment       0x00000000       0x31 contiki-sky.a(button-sensor.o)
 .comment       0x00000000       0x31 contiki-sky.a(ds2411.o)
 .comment       0x00000000       0x31 contiki-sky.a(xmem.o)
 .comment       0x00000000       0x31 contiki-sky.a(node-id.o)
 .comment       0x00000000       0x31 contiki-sky.a(sensors.o)
 .comment       0x00000000       0x31 contiki-sky.a(cc2420.o)
 .comment       0x00000000       0x31 contiki-sky.a(cc2420-arch.o)
 .comment       0x00000000       0x31 contiki-sky.a(uart1.o)
 .comment       0x00000000       0x31 contiki-sky.a(uart1-putchar.o)
 .comment       0x00000000       0x31 contiki-sky.a(msp430.o)
 .comment       0x00000000       0x31 contiki-sky.a(clock.o)
 .comment       0x00000000       0x31 contiki-sky.a(leds.o)
 .comment       0x00000000       0x31 contiki-sky.a(leds-arch.o)
 .comment       0x00000000       0x31 contiki-sky.a(watchdog.o)
 .comment       0x00000000       0x31 contiki-sky.a(rtimer-arch.o)
 .comment       0x00000000       0x31 contiki-sky.a(autostart.o)
 .comment       0x00000000       0x31 contiki-sky.a(ctimer.o)
 .comment       0x00000000       0x31 contiki-sky.a(energest.o)
 .comment       0x00000000       0x31 contiki-sky.a(etimer.o)
 .comment       0x00000000       0x31 contiki-sky.a(process.o)
 .comment       0x00000000       0x31 contiki-sky.a(rtimer.o)
 .comment       0x00000000       0x31 contiki-sky.a(timer.o)
 .comment       0x00000000       0x31 contiki-sky.a(list.o)
 .comment       0x00000000       0x31 contiki-sky.a(random.o)
 .comment       0x00000000       0x31 contiki-sky.a(sicslowpan.o)
 .comment       0x00000000       0x31 contiki-sky.a(uip6.o)
 .comment       0x00000000       0x31 contiki-sky.a(uip-ds6.o)
 .comment       0x00000000       0x31 contiki-sky.a(uip-ds6-nbr.o)
 .comment       0x00000000       0x31 contiki-sky.a(uip-ds6-route.o)
 .comment       0x00000000       0x31 contiki-sky.a(uip-icmp6.o)
 .comment       0x00000000       0x31 contiki-sky.a(uip-nd6.o)
 .comment       0x00000000       0x31 contiki-sky.a(simple-udp.o)
 .comment       0x00000000       0x31 contiki-sky.a(tcpip.o)
 .comment       0x00000000       0x31 contiki-sky.a(uip-debug.o)
 .comment       0x00000000       0x31 contiki-sky.a(uip-udp-packet.)
 .comment       0x00000000       0x31 contiki-sky.a(rpl.o)
 .comment       0x00000000       0x31 contiki-sky.a(rpl-dag.o)
 .comment       0x00000000       0x31 contiki-sky.a(rpl-ext-header.)
 .comment       0x00000000       0x31 contiki-sky.a(rpl-icmp6.o)
 .comment       0x00000000       0x31 contiki-sky.a(rpl-mrhof.o)
 .comment       0x00000000       0x31 contiki-sky.a(rpl-timers.o)
 .comment       0x00000000       0x31 contiki-sky.a(csma.o)
 .comment       0x00000000       0x31 contiki-sky.a(framer-802154.o)
 .comment       0x00000000       0x31 contiki-sky.a(framer.o)
 .comment       0x00000000       0x31 contiki-sky.a(mac.o)
 .comment       0x00000000       0x31 contiki-sky.a(linkaddr.o)
 .comment       0x00000000       0x31 contiki-sky.a(nbr-table.o)
 .comment       0x00000000       0x31 contiki-sky.a(packetbuf.o)
 .comment       0x00000000       0x31 contiki-sky.a(queuebuf.o)
 .comment       0x00000000       0x31 contiki-sky.a(contikimac.o)
 .comment       0x00000000       0x31 contiki-sky.a(nullsec.o)
 .comment       0x00000000       0x31 contiki-sky.a(spi.o)
 .comment       0x00000000       0x31 contiki-sky.a(compower.o)
 .comment       0x00000000       0x31 contiki-sky.a(stimer.o)
 .comment       0x00000000       0x31 contiki-sky.a(memb.o)
 .comment       0x00000000       0x31 contiki-sky.a(frame802154.o)
 .comment       0x00000000       0x31 contiki-sky.a(mac-sequence.o)
 .comment       0x00000000       0x31 /usr/local/msp430/bin/../lib/gcc/msp430/4.7.0/../../../../msp430/lib/mmpy-16/libc.a(printf.o)
 .comment       0x00000000       0x31 /usr/local/msp430/bin/../lib/gcc/msp430/4.7.0/../../../../msp430/lib/mmpy-16/libc.a(vuprintf.o)
 .comment       0x00000000       0x31 /usr/local/msp430/bin/../lib/gcc/msp430/4.7.0/../../../../msp430/lib/mmpy-16/libc.a(puts.o)
 .comment       0x00000000       0x31 /usr/local/msp430/bin/../lib/gcc/msp430/4.7.0/../../../../msp430/lib/mmpy-16/libc.a(rand.o)
 .comment       0x00000000       0x31 /usr/local/msp430/bin/../lib/gcc/msp430/4.7.0/../../../../msp430/lib/mmpy-16/libc.a(memcmp.o)
 .comment       0x00000000       0x31 /usr/local/msp430/bin/../lib/gcc/msp430/4.7.0/../../../../msp430/lib/mmpy-16/libc.a(memcpy.o)
 .comment       0x00000000       0x31 /usr/local/msp430/bin/../lib/gcc/msp430/4.7.0/../../../../msp430/lib/mmpy-16/libc.a(memmove.o)
 .comment       0x00000000       0x31 /usr/local/msp430/bin/../lib/gcc/msp430/4.7.0/../../../../msp430/lib/mmpy-16/libc.a(memset.o)

.debug
 *(.debug)

.line
 *(.line)

.debug_srcinfo
 *(.debug_srcinfo)

.debug_sfnames
 *(.debug_sfnames)

.debug_aranges  0x00000000      0x1a0
 *(.debug_aranges)
 .debug_aranges
                0x00000000       0x14 /usr/local/msp430/bin/../lib/gcc/msp430/4.7.0/mmpy-16/crt0ivtbl16.o
 .debug_aranges
                0x00000014       0x14 /usr/local/msp430/bin/../lib/gcc/msp430/4.7.0/mmpy-16/libgcc.a(_mulsi3.o)
 .debug_aranges
                0x00000028       0x14 /usr/local/msp430/bin/../lib/gcc/msp430/4.7.0/mmpy-16/libgcc.a(_udivmod16.o)
 .debug_aranges
                0x0000003c       0x14 /usr/local/msp430/bin/../lib/gcc/msp430/4.7.0/mmpy-16/libgcc.a(_divmod16.o)
 .debug_aranges
                0x00000050       0x14 /usr/local/msp430/bin/../lib/gcc/msp430/4.7.0/mmpy-16/libgcc.a(_udivmod32.o)
 .debug_aranges
                0x00000064       0x18 /usr/local/msp430/bin/../lib/gcc/msp430/4.7.0/../../../../msp430/lib/mmpy-16/libc.a(printf.o)
 .debug_aranges
                0x0000007c       0x18 /usr/local/msp430/bin/../lib/gcc/msp430/4.7.0/../../../../msp430/lib/mmpy-16/libc.a(vuprintf.o)
 .debug_aranges
                0x00000094       0x14 /usr/local/msp430/bin/../lib/gcc/msp430/4.7.0/../../../../msp430/lib/mmpy-16/libc.a(puts.o)
 .debug_aranges
                0x000000a8       0x1c /usr/local/msp430/bin/../lib/gcc/msp430/4.7.0/../../../../msp430/lib/mmpy-16/libc.a(rand.o)
 .debug_aranges
                0x000000c4       0x14 /usr/local/msp430/bin/../lib/gcc/msp430/4.7.0/../../../../msp430/lib/mmpy-16/libc.a(memcmp.o)
 .debug_aranges
                0x000000d8       0x14 /usr/local/msp430/bin/../lib/gcc/msp430/4.7.0/../../../../msp430/lib/mmpy-16/libc.a(memcpy.o)
 .debug_aranges
                0x000000ec       0x14 /usr/local/msp430/bin/../lib/gcc/msp430/4.7.0/../../../../msp430/lib/mmpy-16/libc.a(memmove.o)
 .debug_aranges
                0x00000100       0x14 /usr/local/msp430/bin/../lib/gcc/msp430/4.7.0/../../../../msp430/lib/mmpy-16/libc.a(memset.o)
 .debug_aranges
                0x00000114       0x14 /usr/local/msp430/bin/../lib/gcc/msp430/4.7.0/mmpy-16/libgcc.a(_udivmod64.o)
 .debug_aranges
                0x00000128       0x14 /usr/local/msp430/bin/../lib/gcc/msp430/4.7.0/mmpy-16/libcrt0.a(__watchdog_support.o)
 .debug_aranges
                0x0000013c       0x14 /usr/local/msp430/bin/../lib/gcc/msp430/4.7.0/mmpy-16/libcrt0.a(__init_stack.o)
 .debug_aranges
                0x00000150       0x14 /usr/local/msp430/bin/../lib/gcc/msp430/4.7.0/mmpy-16/libcrt0.a(_copy_data.o)
 .debug_aranges
                0x00000164       0x14 /usr/local/msp430/bin/../lib/gcc/msp430/4.7.0/mmpy-16/libcrt0.a(_clear_bss.o)
 .debug_aranges
                0x00000178       0x14 /usr/local/msp430/bin/../lib/gcc/msp430/4.7.0/mmpy-16/libcrt0.a(_endless_loop__.o)
 .debug_aranges
                0x0000018c       0x14 /usr/local/msp430/bin/../lib/gcc/msp430/4.7.0/mmpy-16/libcrt0.a(_unexpected_.o)

.debug_pubnames
 *(.debug_pubnames)

.debug_info     0x00000000     0x14ba
 *(.debug_info)
 .debug_info    0x00000000       0x9b /usr/local/msp430/bin/../lib/gcc/msp430/4.7.0/mmpy-16/crt0ivtbl16.o
 .debug_info    0x0000009b       0x98 /usr/local/msp430/bin/../lib/gcc/msp430/4.7.0/mmpy-16/libgcc.a(_mulsi3.o)
 .debug_info    0x00000133       0x98 /usr/local/msp430/bin/../lib/gcc/msp430/4.7.0/mmpy-16/libgcc.a(_udivmod16.o)
 .debug_info    0x000001cb       0x98 /usr/local/msp430/bin/../lib/gcc/msp430/4.7.0/mmpy-16/libgcc.a(_divmod16.o)
 .debug_info    0x00000263       0x98 /usr/local/msp430/bin/../lib/gcc/msp430/4.7.0/mmpy-16/libgcc.a(_udivmod32.o)
 .debug_info    0x000002fb      0x16e /usr/local/msp430/bin/../lib/gcc/msp430/4.7.0/../../../../msp430/lib/mmpy-16/libc.a(printf.o)
 .debug_info    0x00000469      0x5d4 /usr/local/msp430/bin/../lib/gcc/msp430/4.7.0/../../../../msp430/lib/mmpy-16/libc.a(vuprintf.o)
 .debug_info    0x00000a3d       0xc7 /usr/local/msp430/bin/../lib/gcc/msp430/4.7.0/../../../../msp430/lib/mmpy-16/libc.a(puts.o)
 .debug_info    0x00000b04      0x146 /usr/local/msp430/bin/../lib/gcc/msp430/4.7.0/../../../../msp430/lib/mmpy-16/libc.a(rand.o)
 .debug_info    0x00000c4a       0xe5 /usr/local/msp430/bin/../lib/gcc/msp430/4.7.0/../../../../msp430/lib/mmpy-16/libc.a(memcmp.o)
 .debug_info    0x00000d2f      0x12c /usr/local/msp430/bin/../lib/gcc/msp430/4.7.0/../../../../msp430/lib/mmpy-16/libc.a(memcpy.o)
 .debug_info    0x00000e5b      0x12c /usr/local/msp430/bin/../lib/gcc/msp430/4.7.0/../../../../msp430/lib/mmpy-16/libc.a(memmove.o)
 .debug_info    0x00000f87      0x117 /usr/local/msp430/bin/../lib/gcc/msp430/4.7.0/../../../../msp430/lib/mmpy-16/libc.a(memset.o)
 .debug_info    0x0000109e       0x98 /usr/local/msp430/bin/../lib/gcc/msp430/4.7.0/mmpy-16/libgcc.a(_udivmod64.o)
 .debug_info    0x00001136       0x96 /usr/local/msp430/bin/../lib/gcc/msp430/4.7.0/mmpy-16/libcrt0.a(__watchdog_support.o)
 .debug_info    0x000011cc       0x96 /usr/local/msp430/bin/../lib/gcc/msp430/4.7.0/mmpy-16/libcrt0.a(__init_stack.o)
 .debug_info    0x00001262       0x96 /usr/local/msp430/bin/../lib/gcc/msp430/4.7.0/mmpy-16/libcrt0.a(_copy_data.o)
 .debug_info    0x000012f8       0x96 /usr/local/msp430/bin/../lib/gcc/msp430/4.7.0/mmpy-16/libcrt0.a(_clear_bss.o)
 .debug_info    0x0000138e       0x96 /usr/local/msp430/bin/../lib/gcc/msp430/4.7.0/mmpy-16/libcrt0.a(_endless_loop__.o)
 .debug_info    0x00001424       0x96 /usr/local/msp430/bin/../lib/gcc/msp430/4.7.0/mmpy-16/libcrt0.a(_unexpected_.o)
 *(.gnu.linkonce.wi.*)

.debug_abbrev   0x00000000      0x85b
 *(.debug_abbrev)
 .debug_abbrev  0x00000000       0x14 /usr/local/msp430/bin/../lib/gcc/msp430/4.7.0/mmpy-16/crt0ivtbl16.o
 .debug_abbrev  0x00000014       0x14 /usr/local/msp430/bin/../lib/gcc/msp430/4.7.0/mmpy-16/libgcc.a(_mulsi3.o)
 .debug_abbrev  0x00000028       0x14 /usr/local/msp430/bin/../lib/gcc/msp430/4.7.0/mmpy-16/libgcc.a(_udivmod16.o)
 .debug_abbrev  0x0000003c       0x14 /usr/local/msp430/bin/../lib/gcc/msp430/4.7.0/mmpy-16/libgcc.a(_divmod16.o)
 .debug_abbrev  0x00000050       0x14 /usr/local/msp430/bin/../lib/gcc/msp430/4.7.0/mmpy-16/libgcc.a(_udivmod32.o)
 .debug_abbrev  0x00000064       0xfa /usr/local/msp430/bin/../lib/gcc/msp430/4.7.0/../../../../msp430/lib/mmpy-16/libc.a(printf.o)
 .debug_abbrev  0x0000015e      0x23e /usr/local/msp430/bin/../lib/gcc/msp430/4.7.0/../../../../msp430/lib/mmpy-16/libc.a(vuprintf.o)
 .debug_abbrev  0x0000039c       0xa3 /usr/local/msp430/bin/../lib/gcc/msp430/4.7.0/../../../../msp430/lib/mmpy-16/libc.a(puts.o)
 .debug_abbrev  0x0000043f       0xfb /usr/local/msp430/bin/../lib/gcc/msp430/4.7.0/../../../../msp430/lib/mmpy-16/libc.a(rand.o)
 .debug_abbrev  0x0000053a       0x9e /usr/local/msp430/bin/../lib/gcc/msp430/4.7.0/../../../../msp430/lib/mmpy-16/libc.a(memcmp.o)
 .debug_abbrev  0x000005d8       0xab /usr/local/msp430/bin/../lib/gcc/msp430/4.7.0/../../../../msp430/lib/mmpy-16/libc.a(memcpy.o)
 .debug_abbrev  0x00000683       0xab /usr/local/msp430/bin/../lib/gcc/msp430/4.7.0/../../../../msp430/lib/mmpy-16/libc.a(memmove.o)
 .debug_abbrev  0x0000072e       0xa1 /usr/local/msp430/bin/../lib/gcc/msp430/4.7.0/../../../../msp430/lib/mmpy-16/libc.a(memset.o)
 .debug_abbrev  0x000007cf       0x14 /usr/local/msp430/bin/../lib/gcc/msp430/4.7.0/mmpy-16/libgcc.a(_udivmod64.o)
 .debug_abbrev  0x000007e3       0x14 /usr/local/msp430/bin/../lib/gcc/msp430/4.7.0/mmpy-16/libcrt0.a(__watchdog_support.o)
 .debug_abbrev  0x000007f7       0x14 /usr/local/msp430/bin/../lib/gcc/msp430/4.7.0/mmpy-16/libcrt0.a(__init_stack.o)
 .debug_abbrev  0x0000080b       0x14 /usr/local/msp430/bin/../lib/gcc/msp430/4.7.0/mmpy-16/libcrt0.a(_copy_data.o)
 .debug_abbrev  0x0000081f       0x14 /usr/local/msp430/bin/../lib/gcc/msp430/4.7.0/mmpy-16/libcrt0.a(_clear_bss.o)
 .debug_abbrev  0x00000833       0x14 /usr/local/msp430/bin/../lib/gcc/msp430/4.7.0/mmpy-16/libcrt0.a(_endless_loop__.o)
 .debug_abbrev  0x00000847       0x14 /usr/local/msp430/bin/../lib/gcc/msp430/4.7.0/mmpy-16/libcrt0.a(_unexpected_.o)

.debug_line     0x00000000      0xd8d
 *(.debug_line)
 .debug_line    0x00000000       0x64 /usr/local/msp430/bin/../lib/gcc/msp430/4.7.0/mmpy-16/crt0ivtbl16.o
 .debug_line    0x00000064       0x77 /usr/local/msp430/bin/../lib/gcc/msp430/4.7.0/mmpy-16/libgcc.a(_mulsi3.o)
 .debug_line    0x000000db       0x70 /usr/local/msp430/bin/../lib/gcc/msp430/4.7.0/mmpy-16/libgcc.a(_udivmod16.o)
 .debug_line    0x0000014b       0x7b /usr/local/msp430/bin/../lib/gcc/msp430/4.7.0/mmpy-16/libgcc.a(_divmod16.o)
 .debug_line    0x000001c6       0x7f /usr/local/msp430/bin/../lib/gcc/msp430/4.7.0/mmpy-16/libgcc.a(_udivmod32.o)
 .debug_line    0x00000245       0xa9 /usr/local/msp430/bin/../lib/gcc/msp430/4.7.0/../../../../msp430/lib/mmpy-16/libc.a(printf.o)
 .debug_line    0x000002ee      0x30a /usr/local/msp430/bin/../lib/gcc/msp430/4.7.0/../../../../msp430/lib/mmpy-16/libc.a(vuprintf.o)
 .debug_line    0x000005f8       0x65 /usr/local/msp430/bin/../lib/gcc/msp430/4.7.0/../../../../msp430/lib/mmpy-16/libc.a(puts.o)
 .debug_line    0x0000065d       0x68 /usr/local/msp430/bin/../lib/gcc/msp430/4.7.0/../../../../msp430/lib/mmpy-16/libc.a(rand.o)
 .debug_line    0x000006c5       0x8f /usr/local/msp430/bin/../lib/gcc/msp430/4.7.0/../../../../msp430/lib/mmpy-16/libc.a(memcmp.o)
 .debug_line    0x00000754      0x118 /usr/local/msp430/bin/../lib/gcc/msp430/4.7.0/../../../../msp430/lib/mmpy-16/libc.a(memcpy.o)
 .debug_line    0x0000086c      0x117 /usr/local/msp430/bin/../lib/gcc/msp430/4.7.0/../../../../msp430/lib/mmpy-16/libc.a(memmove.o)
 .debug_line    0x00000983       0xf2 /usr/local/msp430/bin/../lib/gcc/msp430/4.7.0/../../../../msp430/lib/mmpy-16/libc.a(memset.o)
 .debug_line    0x00000a75       0xc9 /usr/local/msp430/bin/../lib/gcc/msp430/4.7.0/mmpy-16/libgcc.a(_udivmod64.o)
 .debug_line    0x00000b3e       0x62 /usr/local/msp430/bin/../lib/gcc/msp430/4.7.0/mmpy-16/libcrt0.a(__watchdog_support.o)
 .debug_line    0x00000ba0       0x60 /usr/local/msp430/bin/../lib/gcc/msp430/4.7.0/mmpy-16/libcrt0.a(__init_stack.o)
 .debug_line    0x00000c00       0x66 /usr/local/msp430/bin/../lib/gcc/msp430/4.7.0/mmpy-16/libcrt0.a(_copy_data.o)
 .debug_line    0x00000c66       0x66 /usr/local/msp430/bin/../lib/gcc/msp430/4.7.0/mmpy-16/libcrt0.a(_clear_bss.o)
 .debug_line    0x00000ccc       0x61 /usr/local/msp430/bin/../lib/gcc/msp430/4.7.0/mmpy-16/libcrt0.a(_endless_loop__.o)
 .debug_line    0x00000d2d       0x60 /usr/local/msp430/bin/../lib/gcc/msp430/4.7.0/mmpy-16/libcrt0.a(_unexpected_.o)

.debug_frame    0x00000000      0x1e8
 *(.debug_frame)
 .debug_frame   0x00000000       0x2a /usr/local/msp430/bin/../lib/gcc/msp430/4.7.0/../../../../msp430/lib/mmpy-16/libc.a(printf.o)
 .debug_frame   0x0000002a       0xa0 /usr/local/msp430/bin/../lib/gcc/msp430/4.7.0/../../../../msp430/lib/mmpy-16/libc.a(vuprintf.o)
 .debug_frame   0x000000ca       0x24 /usr/local/msp430/bin/../lib/gcc/msp430/4.7.0/../../../../msp430/lib/mmpy-16/libc.a(puts.o)
 .debug_frame   0x000000ee       0x3c /usr/local/msp430/bin/../lib/gcc/msp430/4.7.0/../../../../msp430/lib/mmpy-16/libc.a(rand.o)
 .debug_frame   0x0000012a       0x28 /usr/local/msp430/bin/../lib/gcc/msp430/4.7.0/../../../../msp430/lib/mmpy-16/libc.a(memcmp.o)
 .debug_frame   0x00000152       0x32 /usr/local/msp430/bin/../lib/gcc/msp430/4.7.0/../../../../msp430/lib/mmpy-16/libc.a(memcpy.o)
 .debug_frame   0x00000184       0x32 /usr/local/msp430/bin/../lib/gcc/msp430/4.7.0/../../../../msp430/lib/mmpy-16/libc.a(memmove.o)
 .debug_frame   0x000001b6       0x32 /usr/local/msp430/bin/../lib/gcc/msp430/4.7.0/../../../../msp430/lib/mmpy-16/libc.a(memset.o)

.debug_str      0x00000000      0x3f1
 *(.debug_str)
 .debug_str     0x00000000       0xee /usr/local/msp430/bin/../lib/gcc/msp430/4.7.0/../../../../msp430/lib/mmpy-16/libc.a(printf.o)
                                0x136 (size before relaxing)
 .debug_str     0x000000ee      0x218 /usr/local/msp430/bin/../lib/gcc/msp430/4.7.0/../../../../msp430/lib/mmpy-16/libc.a(vuprintf.o)
                                0x381 (size before relaxing)
 .debug_str     0x00000306       0x1d /usr/local/msp430/bin/../lib/gcc/msp430/4.7.0/../../../../msp430/lib/mmpy-16/libc.a(puts.o)
                                 0xfb (size before relaxing)
 .debug_str     0x00000323       0x2f /usr/local/msp430/bin/../lib/gcc/msp430/4.7.0/../../../../msp430/lib/mmpy-16/libc.a(rand.o)
                                0x112 (size before relaxing)
 .debug_str     0x00000352       0x20 /usr/local/msp430/bin/../lib/gcc/msp430/4.7.0/../../../../msp430/lib/mmpy-16/libc.a(memcmp.o)
                                 0xfe (size before relaxing)
 .debug_str     0x00000372       0x3e /usr/local/msp430/bin/../lib/gcc/msp430/4.7.0/../../../../msp430/lib/mmpy-16/libc.a(memcpy.o)
                                0x12c (size before relaxing)
 .debug_str     0x000003b0       0x1b /usr/local/msp430/bin/../lib/gcc/msp430/4.7.0/../../../../msp430/lib/mmpy-16/libc.a(memmove.o)
                                0x12e (size before relaxing)
 .debug_str     0x000003cb       0x26 /usr/local/msp430/bin/../lib/gcc/msp430/4.7.0/../../../../msp430/lib/mmpy-16/libc.a(memset.o)
                                0x12a (size before relaxing)

.debug_loc      0x00000000      0xdaf
 *(.debug_loc)
 .debug_loc     0x00000000       0x4c /usr/local/msp430/bin/../lib/gcc/msp430/4.7.0/../../../../msp430/lib/mmpy-16/libc.a(printf.o)
 .debug_loc     0x0000004c      0x7fa /usr/local/msp430/bin/../lib/gcc/msp430/4.7.0/../../../../msp430/lib/mmpy-16/libc.a(vuprintf.o)
 .debug_loc     0x00000846       0x26 /usr/local/msp430/bin/../lib/gcc/msp430/4.7.0/../../../../msp430/lib/mmpy-16/libc.a(puts.o)
 .debug_loc     0x0000086c       0x4f /usr/local/msp430/bin/../lib/gcc/msp430/4.7.0/../../../../msp430/lib/mmpy-16/libc.a(rand.o)
 .debug_loc     0x000008bb       0x4d /usr/local/msp430/bin/../lib/gcc/msp430/4.7.0/../../../../msp430/lib/mmpy-16/libc.a(memcmp.o)
 .debug_loc     0x00000908      0x1e3 /usr/local/msp430/bin/../lib/gcc/msp430/4.7.0/../../../../msp430/lib/mmpy-16/libc.a(memcpy.o)
 .debug_loc     0x00000aeb      0x1e3 /usr/local/msp430/bin/../lib/gcc/msp430/4.7.0/../../../../msp430/lib/mmpy-16/libc.a(memmove.o)
 .debug_loc     0x00000cce       0xe1 /usr/local/msp430/bin/../lib/gcc/msp430/4.7.0/../../../../msp430/lib/mmpy-16/libc.a(memset.o)

.debug_macinfo
 *(.debug_macinfo)

.debug_pubtypes
 *(.debug_pubtypes)

.debug_ranges   0x00000000       0x68
 *(.debug_ranges)
 .debug_ranges  0x00000000        0xc /usr/local/msp430/bin/../lib/gcc/msp430/4.7.0/../../../../msp430/lib/mmpy-16/libc.a(printf.o)
 .debug_ranges  0x0000000c       0x24 /usr/local/msp430/bin/../lib/gcc/msp430/4.7.0/../../../../msp430/lib/mmpy-16/libc.a(vuprintf.o)
 .debug_ranges  0x00000030        0x8 /usr/local/msp430/bin/../lib/gcc/msp430/4.7.0/../../../../msp430/lib/mmpy-16/libc.a(puts.o)
 .debug_ranges  0x00000038       0x10 /usr/local/msp430/bin/../lib/gcc/msp430/4.7.0/../../../../msp430/lib/mmpy-16/libc.a(rand.o)
 .debug_ranges  0x00000048        0x8 /usr/local/msp430/bin/../lib/gcc/msp430/4.7.0/../../../../msp430/lib/mmpy-16/libc.a(memcmp.o)
 .debug_ranges  0x00000050        0x8 /usr/local/msp430/bin/../lib/gcc/msp430/4.7.0/../../../../msp430/lib/mmpy-16/libc.a(memcpy.o)
 .debug_ranges  0x00000058        0x8 /usr/local/msp430/bin/../lib/gcc/msp430/4.7.0/../../../../msp430/lib/mmpy-16/libc.a(memmove.o)
 .debug_ranges  0x00000060        0x8 /usr/local/msp430/bin/../lib/gcc/msp430/4.7.0/../../../../msp430/lib/mmpy-16/libc.a(memset.o)
                0x00003900                PROVIDE (__stack, (ORIGIN (ram) + 0x2800))
                0x0000e920                __data_start_rom = _etext
                0x0000ea08                __data_end_rom = (_etext + SIZEOF (.data))
OUTPUT(broadcast-example.sky elf32-msp430)
